** EXPERIMENTAL (HLL) ** Open Watcom Linker Version 2.0beta1 Limited Availability
Portions Copyright (c) 1985-2002 Sybase, Inc. All Rights Reserved.
Created on:       17/01/04 11:52:23
Executable Image: html2txt.dll
creating an OS/2 EMX dynamic link library


                        +------------+
                        |   Groups   |
                        +------------+

Group                           Address              Size
=====                           =======              ====

CGROUP                          0001:00000000        00021870
DGROUP                          0002:00000000        00006b40



                        +--------------+
                        |   Segments   |
                        +--------------+

Segment                Class          Group          Address         Size
=======                =====          =====          =======         ====

TEXT32                 CODE           CGROUP         0001:00000000   00021870
________TEXT           CODE           CGROUP         0001:00021870   00000000
DATA32                 DATA           DGROUP         0002:00000000   00006288
SET1__os2dll           DATA           DGROUP         0002:00006288   00000004
SET2__os2dll           DATA           DGROUP         0002:0000628c   00000000
SET3__os2dll           DATA           DGROUP         0002:0000628c   00000004
SET1___CTOR_LIST__     DATA           DGROUP         0002:00006290   00000004
SET2___CTOR_LIST__     DATA           DGROUP         0002:00006294   00000018
SET3___CTOR_LIST__     DATA           DGROUP         0002:000062ac   00000004
SET1___DTOR_LIST__     DATA           DGROUP         0002:000062b0   00000004
SET2___DTOR_LIST__     DATA           DGROUP         0002:000062b4   00000018
SET3___DTOR_LIST__     DATA           DGROUP         0002:000062cc   00000004
SET1___crtinit1__      DATA           DGROUP         0002:000062d0   00000004
SET2___crtinit1__      DATA           DGROUP         0002:000062d4   00000000
SET3___crtinit1__      DATA           DGROUP         0002:000062d4   00000004
SET1___crtexit1__      DATA           DGROUP         0002:000062d8   00000004
SET2___crtexit1__      DATA           DGROUP         0002:000062dc   00000000
SET3___crtexit1__      DATA           DGROUP         0002:000062dc   00000004
SET1___eh_frame__      DATA           DGROUP         0002:000062e0   00000004
SET2___eh_frame__      DATA           DGROUP         0002:000062e4   00000038
SET3___eh_frame__      DATA           DGROUP         0002:0000631c   00000004
SET1___eh_init__       DATA           DGROUP         0002:00006320   00000004
SET2___eh_init__       DATA           DGROUP         0002:00006324   00000004
SET3___eh_init__       DATA           DGROUP         0002:00006328   00000004
SET1___eh_term__       DATA           DGROUP         0002:0000632c   00000004
SET2___eh_term__       DATA           DGROUP         0002:00006330   00000004
SET3___eh_term__       DATA           DGROUP         0002:00006334   00000004
SET1___fork_parent1__  DATA           DGROUP         0002:00006338   00000004
SET2___fork_parent1__  DATA           DGROUP         0002:0000633c   00000000
SET3___fork_parent1__  DATA           DGROUP         0002:0000633c   00000004
SET1___fork_child1__   DATA           DGROUP         0002:00006340   00000004
SET2___fork_child1__   DATA           DGROUP         0002:00006344   00000000
SET3___fork_child1__   DATA           DGROUP         0002:00006344   00000004
________DATA           DATA           DGROUP         0002:00006350   00000000
BSS32                  BSS            DGROUP         0002:00006350   000007f0
c_common               BSS            DGROUP         0002:00006b40   00000000
________BSS            BSS            DGROUP         0002:00006b40   00000000


                        +----------------+
                        |   Memory Map   |
                        +----------------+

* = unreferenced symbol
+ = symbol only referenced locally

Address        Symbol
=======        ======

Module: K:\usr\lib\dll0.obj({standard input})
0001:00000000* __text
0002:00000000* __data
0002:00000000* ___data_start
0002:00006350* ___bss_start
0002:00006288+ __os2dll
0002:00006290  ___CTOR_LIST__
0002:000062b0  ___DTOR_LIST__
0002:000062d0* ___crtinit1__
0002:000062d8* ___crtexit1__
0002:000062e0  ___eh_frame__
0002:00006320  ___eh_init__
0002:0000632c  ___eh_term__
0002:00006338+ ___fork_parent1__
0002:00006340+ ___fork_child1__
Module: K:\usr\local\src\dssaver.test\Modules\CairoRSS\html2txt\html2text.o(html2text.o)
0001:000000a0* __ZN11LocalParser7yyerrorEPc
0001:000000b0* __ZN11LocalParser7processERK8Document
0001:00000140+ html2text_free
0001:000001a0+ html2text_convert
0002:00000080  _use_iso8859
0001:000000f0* __ZN11LocalParserD1Ev$w$l38PlSjaTe70Plwu1
0001:00000110* __ZN11LocalParserD0Ev$w$l38PlSjaTe70Plwu1
0001:00000400* __ZTV11LocalParser$w$l38PlSjaTe70Plwu1
0001:0000039c* __ZTI10HTMLParser$w$l38PlSjaTe70Plwu1
0001:000003a4* __ZTS10HTMLParser$w$l38PlSjaTe70Plwu1
0001:000003b4* __ZTI11HTMLControl$w$l38PlSjaTe70Plwu1
0001:000003c0* __ZTS11HTMLControl$w$l38PlSjaTe70Plwu1
0001:000003d0* __ZTS11LocalParser$w$l38PlSjaTe70Plwu1
0001:000003e0* __ZTI11LocalParser$w$l38PlSjaTe70Plwu1
Module: K:\usr\local\src\dssaver.test\Modules\CairoRSS\html2txt\html.o(html.o)
0001:000004d0* __ZNK13ListBlockItem7unparseERSoPFS0_S0_E
0001:00000660* __ZNK14TermDefinition7unparseERSoPFS0_S0_E
0001:000006e0* __ZNK10BlockQuote7unparseERSoPFS0_S0_E
0001:00000760* __ZNK6Center7unparseERSoPFS0_S0_E
0001:000007e0* __ZNK7Address7unparseERSoPFS0_S0_E
0001:00000850* __ZNK8TermName7unparseERSoPFS0_S0_E
0001:000008d0* __ZNK7NoBreak7unparseERSoPFS0_S0_E
0001:00000a00* __ZNK4Body7unparseERSoPFS0_S0_E
0001:00000aa0* __ZNK9Paragraph7unparseERSoPFS0_S0_E
0001:00000b40* __ZNK5Image7unparseERSoPFS0_S0_E
0001:00000bb0* __ZNK6Applet7unparseERSoPFS0_S0_E
0001:00000c50* __ZNK5Param7unparseERSoPFS0_S0_E
0001:00000cc0* __ZNK8Division7unparseERSoPFS0_S0_E
0001:00000d60* __ZNK4Form7unparseERSoPFS0_S0_E
0001:00000e00* __ZNK12Preformatted7unparseERSoPFS0_S0_E
0001:00000ea0* __ZNK14HorizontalRule7unparseERSoPFS0_S0_E
0001:00000f10* __ZNK5Input7unparseERSoPFS0_S0_E
0001:00000f80* __ZNK11OrderedList7unparseERSoPFS0_S0_E
0001:00001020* __ZNK13UnorderedList7unparseERSoPFS0_S0_E
0001:000010c0* __ZNK3Dir7unparseERSoPFS0_S0_E
0001:00001160* __ZNK4Menu7unparseERSoPFS0_S0_E
0001:00001200* __ZNK14ListNormalItem7unparseERSoPFS0_S0_E
0001:000012a0* __ZNK6Anchor7unparseERSoPFS0_S0_E
0001:00001340* __ZNK8BaseFont7unparseERSoPFS0_S0_E
0001:000013a0* __ZNK9LineBreak7unparseERSoPFS0_S0_E
0001:00001410* __ZNK5Font27unparseERSoPFS0_S0_E
0001:000014b0* __ZNK9TableCell7unparseERSoPFS0_S0_E
0001:00001550* __ZNK16TableHeadingCell7unparseERSoPFS0_S0_E
0001:00001600* __ZNK8TextArea7unparseERSoPFS0_S0_E
0001:000016f0* __ZNK7Heading7unparseERSoPFS0_S0_E
0001:00001af0* __ZNK4Font7unparseERSoPFS0_S0_E
0001:00001cd0* __ZNK6Phrase7unparseERSoPFS0_S0_E
0001:00001e90* __ZNK14DefinitionList7unparseERSoPFS0_S0_E
0001:00002260* __ZNK3Map7unparseERSoPFS0_S0_E
0001:00002370* __ZNK6PCData7unparseERSoPFS0_S0_E
0001:000024e0* __ZN7ElementD2Ev
0001:000024e0* __ZN7ElementD1Ev
0001:000024f0* __ZN7ElementD0Ev
0001:00002510* __ZNK6Script7unparseERSoPFS0_S0_E
0001:000025b0* __ZNK5Style7unparseERSoPFS0_S0_E
0001:00002680* __ZNK4Head7unparseERSoPFS0_S0_E
0001:00002a90* __ZNK8Document7unparseERSoPFS0_S0_E
0001:00002b50* __ZNK6Option7unparseERSoPFS0_S0_E
0001:00002c50* __ZNK6Select7unparseERSoPFS0_S0_E
0001:00002d70* __ZNK8TableRow7unparseERSoPFS0_S0_E
0001:00002e40* __ZNK7Caption7unparseERSoPFS0_S0_E
0001:00002ee0* __ZNK5Table7unparseERSoPFS0_S0_E
0001:00002fb0  __Z13get_attributePKSt4listISt4pairISsSsESaIS1_EEPKcS7_
0001:00003050  __Z13get_attributePKSt4listISt4pairISsSsESaIS1_EEPKcPb
0001:000030f0  __Z13get_attributePKSt4listISt4pairISsSsESaIS1_EEPKci
0001:00003160  __Z13get_attributePKSt4listISt4pairISsSsESaIS1_EEPKciS7_iz
0001:00003230  __Z13get_attributePKSt4listISt4pairISsSsESaIS1_EEPKcS7_iS7_iz
0001:00000420* __ZNKSt5ctypeIcE8do_widenEc$w$HmIr92kaTe736Ei30
0001:00000430* __ZNK7Element11line_formatEv$w$HmIr92kaTe736Ei30
0001:00000440* __ZNK7Element6formatEji$w$HmIr92kaTe736Ei30
0001:00000450* __ZN7Element9to_PCDataEv$w$HmIr92kaTe736Ei30
0001:00000460* __ZN6PCData9to_PCDataEv$w$HmIr92kaTe736Ei30
0001:00000480* __ZN13ListBlockItemD1Ev$w$HmIr92kaTe736Ei30
0001:00005798* __ZTV13ListBlockItem$w$HmIr92kaTe736Ei30
0001:000004a0* __ZN13ListBlockItemD0Ev$w$HmIr92kaTe736Ei30
0001:000005a0* __ZN6PCDataD0Ev$w$HmIr92kaTe736Ei30
0001:00005500* __ZTV6PCData$w$HmIr92kaTe736Ei30
0001:00000600* __ZN6PCDataD1Ev$w$HmIr92kaTe736Ei30
0001:000017c0* __ZN7AddressD1Ev$w$HmIr92kaTe736Ei30
0001:00005620* __ZTV7Address$w$HmIr92kaTe736Ei30
0001:00001820* __ZN6PhraseD1Ev$w$HmIr92kaTe736Ei30
0001:00005880* __ZTV6Phrase$w$HmIr92kaTe736Ei30
0001:00001880* __ZN14TermDefinitionD1Ev$w$HmIr92kaTe736Ei30
0001:000057f8* __ZTV14TermDefinition$w$HmIr92kaTe736Ei30
0001:000018e0* __ZN4FontD1Ev$w$HmIr92kaTe736Ei30
0001:00005860* __ZTV4Font$w$HmIr92kaTe736Ei30
0001:00001940* __ZN6CenterD1Ev$w$HmIr92kaTe736Ei30
0001:000055e0* __ZTV6Center$w$HmIr92kaTe736Ei30
0001:000019a0* __ZN8TermNameD1Ev$w$HmIr92kaTe736Ei30
0001:000057e0* __ZTV8TermName$w$HmIr92kaTe736Ei30
0001:00001a00* __ZN7NoBreakD1Ev$w$HmIr92kaTe736Ei30
0001:00005840* __ZTV7NoBreak$w$HmIr92kaTe736Ei30
0001:00001a60* __ZN10BlockQuoteD1Ev$w$HmIr92kaTe736Ei30
0001:00005600* __ZTV10BlockQuote$w$HmIr92kaTe736Ei30
0001:00001f50* __ZN8TermNameD0Ev$w$HmIr92kaTe736Ei30
0001:00001fb0* __ZN6PhraseD0Ev$w$HmIr92kaTe736Ei30
0001:00002010* __ZN7AddressD0Ev$w$HmIr92kaTe736Ei30
0001:00002070* __ZN4FontD0Ev$w$HmIr92kaTe736Ei30
0001:000020d0* __ZN14TermDefinitionD0Ev$w$HmIr92kaTe736Ei30
0001:00002130* __ZN7NoBreakD0Ev$w$HmIr92kaTe736Ei30
0001:00002190* __ZN6CenterD0Ev$w$HmIr92kaTe736Ei30
0001:000021f0* __ZN10BlockQuoteD0Ev$w$HmIr92kaTe736Ei30
0001:00003300* __ZN8auto_ptrISt4listIS_I7ElementESaIS2_EEED1Ev$w$HmIr92kaTe736Ei30
0001:00003350* __ZNSt10_List_baseISt4pairISsSsESaIS1_EE8_M_clearEv$w$HmIr92kaTe736Ei30
0001:00003420* __ZN8auto_ptrISt4listISt4pairISsSsESaIS2_EEED1Ev$w$HmIr92kaTe736Ei30
0001:00003450* __ZN5InputD1Ev$w$HmIr92kaTe736Ei30
0001:000056a0* __ZTV5Input$w$HmIr92kaTe736Ei30
0001:00003490* __ZN8BaseFontD1Ev$w$HmIr92kaTe736Ei30
0001:000058c0* __ZTV8BaseFont$w$HmIr92kaTe736Ei30
0001:000034d0* __ZN5ImageD1Ev$w$HmIr92kaTe736Ei30
0001:00005560* __ZTV5Image$w$HmIr92kaTe736Ei30
0001:00003510* __ZN9LineBreakD1Ev$w$HmIr92kaTe736Ei30
0001:000058e0* __ZTV9LineBreak$w$HmIr92kaTe736Ei30
0001:00003550* __ZN5ParamD1Ev$w$HmIr92kaTe736Ei30
0001:000055a0* __ZTV5Param$w$HmIr92kaTe736Ei30
0001:00003590* __ZN14HorizontalRuleD1Ev$w$HmIr92kaTe736Ei30
0001:00005680* __ZTV14HorizontalRule$w$HmIr92kaTe736Ei30
0001:000035d0* __ZN4BodyD1Ev$w$HmIr92kaTe736Ei30
0001:000054e0* __ZTV4Body$w$HmIr92kaTe736Ei30
0001:00003660* __ZN8BaseFontD0Ev$w$HmIr92kaTe736Ei30
0001:000036a0* __ZN9TableCellD1Ev$w$HmIr92kaTe736Ei30
0001:00003730* __ZN5Font2D1Ev$w$HmIr92kaTe736Ei30
0001:00005920* __ZTV5Font2$w$HmIr92kaTe736Ei30
0001:000037c0* __ZN6AnchorD1Ev$w$HmIr92kaTe736Ei30
0001:000058a0* __ZTV6Anchor$w$HmIr92kaTe736Ei30
0001:00003850* __ZN14ListNormalItemD1Ev$w$HmIr92kaTe736Ei30
0001:00005780* __ZTV14ListNormalItem$w$HmIr92kaTe736Ei30
0001:000038e0* __ZN9LineBreakD0Ev$w$HmIr92kaTe736Ei30
0001:00003920* __ZN12PreformattedD1Ev$w$HmIr92kaTe736Ei30
0001:00005660* __ZTV12Preformatted$w$HmIr92kaTe736Ei30
0001:000039b0* __ZN5ParamD0Ev$w$HmIr92kaTe736Ei30
0001:000039f0* __ZN5InputD0Ev$w$HmIr92kaTe736Ei30
0001:00003a30* __ZN14HorizontalRuleD0Ev$w$HmIr92kaTe736Ei30
0001:00003a70* __ZN8DivisionD1Ev$w$HmIr92kaTe736Ei30
0001:000055c0* __ZTV8Division$w$HmIr92kaTe736Ei30
0001:00003b00* __ZN6AppletD1Ev$w$HmIr92kaTe736Ei30
0001:00005580* __ZTV6Applet$w$HmIr92kaTe736Ei30
0001:00003b90* __ZN5ImageD0Ev$w$HmIr92kaTe736Ei30
0001:00003bd0* __ZN7HeadingD1Ev$w$HmIr92kaTe736Ei30
0001:00005520* __ZTV7Heading$w$HmIr92kaTe736Ei30
0001:00003c60* __ZN9ParagraphD1Ev$w$HmIr92kaTe736Ei30
0001:00005540* __ZTV9Paragraph$w$HmIr92kaTe736Ei30
0001:00003cf0* __ZN4FormD1Ev$w$HmIr92kaTe736Ei30
0001:00005640* __ZTV4Form$w$HmIr92kaTe736Ei30
0001:00003d80* __ZN16TableHeadingCellD1Ev$w$HmIr92kaTe736Ei30
0001:00003e10* __ZN8TextAreaD1Ev$w$HmIr92kaTe736Ei30
0001:000056e0* __ZTV8TextArea$w$HmIr92kaTe736Ei30
0001:00003e70* __ZN6AppletD0Ev$w$HmIr92kaTe736Ei30
0001:00003f00* __ZN4BodyD0Ev$w$HmIr92kaTe736Ei30
0001:00003f90* __ZN12PreformattedD0Ev$w$HmIr92kaTe736Ei30
0001:00004020* __ZN14ListNormalItemD0Ev$w$HmIr92kaTe736Ei30
0001:000040b0* __ZN7HeadingD0Ev$w$HmIr92kaTe736Ei30
0001:00004140* __ZN8DivisionD0Ev$w$HmIr92kaTe736Ei30
0001:000041d0* __ZN4FormD0Ev$w$HmIr92kaTe736Ei30
0001:00004260* __ZN6AnchorD0Ev$w$HmIr92kaTe736Ei30
0001:000042f0* __ZN5Font2D0Ev$w$HmIr92kaTe736Ei30
0001:00004380* __ZN9ParagraphD0Ev$w$HmIr92kaTe736Ei30
0001:00004410* __ZN9TableCellD0Ev$w$HmIr92kaTe736Ei30
0001:000044a0* __ZN16TableHeadingCellD0Ev$w$HmIr92kaTe736Ei30
0001:00004530* __ZN8TextAreaD0Ev$w$HmIr92kaTe736Ei30
0001:00004590* __ZN14DefinitionListD1Ev$w$HmIr92kaTe736Ei30
0001:000057c0* __ZTV14DefinitionList$w$HmIr92kaTe736Ei30
0001:00004670* __ZN14DefinitionListD0Ev$w$HmIr92kaTe736Ei30
0001:00004750* __ZN8auto_ptrI7CaptionED1Ev$w$HmIr92kaTe736Ei30
0001:000047f0* __ZNSt10_List_baseI8auto_ptrISt4listISt4pairISsSsESaIS3_EEESaIS6_EE8_M_clearEv$w$HmIr92kaTe736Ei30
0001:00004840* __ZN3MapD0Ev$w$HmIr92kaTe736Ei30
0001:00005900* __ZTV3Map$w$HmIr92kaTe736Ei30
0001:00004890* __ZN3MapD1Ev$w$HmIr92kaTe736Ei30
0001:000048e0* __ZNSt10_List_baseI8auto_ptrI8TableRowESaIS2_EE8_M_clearEv$w$HmIr92kaTe736Ei30
0001:000049b0* __ZN5TableD1Ev$w$HmIr92kaTe736Ei30
0001:00005820* __ZTV5Table$w$HmIr92kaTe736Ei30
0001:00004aa0* __ZN5TableD0Ev$w$HmIr92kaTe736Ei30
0001:00004ba0* __ZNSt10_List_baseI8auto_ptrI8ListItemESaIS2_EE8_M_clearEv$w$HmIr92kaTe736Ei30
0001:00004be0* __ZN11OrderedListD1Ev$w$HmIr92kaTe736Ei30
0001:00005700* __ZTV11OrderedList$w$HmIr92kaTe736Ei30
0001:00004c50* __ZN4MenuD1Ev$w$HmIr92kaTe736Ei30
0001:00005760* __ZTV4Menu$w$HmIr92kaTe736Ei30
0001:00004cc0* __ZN13UnorderedListD1Ev$w$HmIr92kaTe736Ei30
0001:00005720* __ZTV13UnorderedList$w$HmIr92kaTe736Ei30
0001:00004d30* __ZN3DirD1Ev$w$HmIr92kaTe736Ei30
0001:00005740* __ZTV3Dir$w$HmIr92kaTe736Ei30
0001:00004da0* __ZN13UnorderedListD0Ev$w$HmIr92kaTe736Ei30
0001:00004e10* __ZN11OrderedListD0Ev$w$HmIr92kaTe736Ei30
0001:00004e80* __ZN4MenuD0Ev$w$HmIr92kaTe736Ei30
0001:00004ef0* __ZN3DirD0Ev$w$HmIr92kaTe736Ei30
0001:00004f60* __ZNSt10_List_baseI8auto_ptrI6OptionESaIS2_EE8_M_clearEv$w$HmIr92kaTe736Ei30
0001:00004fe0* __ZN6SelectD1Ev$w$HmIr92kaTe736Ei30
0001:000056c0* __ZTV6Select$w$HmIr92kaTe736Ei30
0001:00005050* __ZN6SelectD0Ev$w$HmIr92kaTe736Ei30
0001:000050f4* __ZTS7Element$w$HmIr92kaTe736Ei30
0001:00005100* __ZTI7Element$w$HmIr92kaTe736Ei30
0001:00005108* __ZTS6PCData$w$HmIr92kaTe736Ei30
0001:00005110* __ZTI6PCData$w$HmIr92kaTe736Ei30
0001:0000511c* __ZTS4Font$w$HmIr92kaTe736Ei30
0001:00005124* __ZTI4Font$w$HmIr92kaTe736Ei30
0001:00005130* __ZTS6Phrase$w$HmIr92kaTe736Ei30
0001:00005138* __ZTI6Phrase$w$HmIr92kaTe736Ei30
0001:00005144* __ZTS5Font2$w$HmIr92kaTe736Ei30
0001:0000514c* __ZTI5Font2$w$HmIr92kaTe736Ei30
0001:00005158* __ZTS6Anchor$w$HmIr92kaTe736Ei30
0001:00005160* __ZTI6Anchor$w$HmIr92kaTe736Ei30
0001:0000516c* __ZTS8BaseFont$w$HmIr92kaTe736Ei30
0001:00005178* __ZTI8BaseFont$w$HmIr92kaTe736Ei30
0001:00005184* __ZTS9LineBreak$w$HmIr92kaTe736Ei30
0001:00005190* __ZTI9LineBreak$w$HmIr92kaTe736Ei30
0001:0000519c* __ZTS3Map$w$HmIr92kaTe736Ei30
0001:000051a4* __ZTI3Map$w$HmIr92kaTe736Ei30
0001:000051b0* __ZTS9Paragraph$w$HmIr92kaTe736Ei30
0001:000051bc* __ZTI9Paragraph$w$HmIr92kaTe736Ei30
0001:000051c8* __ZTS5Image$w$HmIr92kaTe736Ei30
0001:000051d0* __ZTI5Image$w$HmIr92kaTe736Ei30
0001:000051dc* __ZTS6Applet$w$HmIr92kaTe736Ei30
0001:000051e4* __ZTI6Applet$w$HmIr92kaTe736Ei30
0001:000051f0* __ZTS5Param$w$HmIr92kaTe736Ei30
0001:000051f8* __ZTI5Param$w$HmIr92kaTe736Ei30
0001:00005204* __ZTS8Division$w$HmIr92kaTe736Ei30
0001:00005210* __ZTI8Division$w$HmIr92kaTe736Ei30
0001:0000521c* __ZTS6Center$w$HmIr92kaTe736Ei30
0001:00005224* __ZTI6Center$w$HmIr92kaTe736Ei30
0001:00005230* __ZTS10BlockQuote$w$HmIr92kaTe736Ei30
0001:00005240* __ZTI10BlockQuote$w$HmIr92kaTe736Ei30
0001:0000524c* __ZTS7Address$w$HmIr92kaTe736Ei30
0001:00005258* __ZTI7Address$w$HmIr92kaTe736Ei30
0001:00005264* __ZTS4Form$w$HmIr92kaTe736Ei30
0001:0000526c* __ZTI4Form$w$HmIr92kaTe736Ei30
0001:00005278* __ZTS5Input$w$HmIr92kaTe736Ei30
0001:00005280* __ZTI5Input$w$HmIr92kaTe736Ei30
0001:0000528c* __ZTS6Select$w$HmIr92kaTe736Ei30
0001:00005294* __ZTI6Select$w$HmIr92kaTe736Ei30
0001:000052a0* __ZTS8TextArea$w$HmIr92kaTe736Ei30
0001:000052ac* __ZTI8TextArea$w$HmIr92kaTe736Ei30
0001:000052b8* __ZTS12Preformatted$w$HmIr92kaTe736Ei30
0001:000052c8* __ZTI12Preformatted$w$HmIr92kaTe736Ei30
0001:000052d4* __ZTS4Body$w$HmIr92kaTe736Ei30
0001:000052dc* __ZTI4Body$w$HmIr92kaTe736Ei30
0001:000052e4* __ZTS7Heading$w$HmIr92kaTe736Ei30
0001:000052f0* __ZTI7Heading$w$HmIr92kaTe736Ei30
0001:000052fc* __ZTS9TableCell$w$HmIr92kaTe736Ei30
0001:00005308* __ZTI9TableCell$w$HmIr92kaTe736Ei30
0001:00005314* __ZTS16TableHeadingCell$w$HmIr92kaTe736Ei30
0001:00005328* __ZTI16TableHeadingCell$w$HmIr92kaTe736Ei30
0001:00005334* __ZTS5Table$w$HmIr92kaTe736Ei30
0001:0000533c* __ZTI5Table$w$HmIr92kaTe736Ei30
0001:00005348* __ZTS7NoBreak$w$HmIr92kaTe736Ei30
0001:00005354* __ZTI7NoBreak$w$HmIr92kaTe736Ei30
0001:00005360* __ZTS14HorizontalRule$w$HmIr92kaTe736Ei30
0001:00005374* __ZTI14HorizontalRule$w$HmIr92kaTe736Ei30
0001:00005380* __ZTI8ListItem$w$HmIr92kaTe736Ei30
0001:00005388* __ZTS8ListItem$w$HmIr92kaTe736Ei30
0001:00005394* __ZTS14ListNormalItem$w$HmIr92kaTe736Ei30
0001:000053a8* __ZTI14ListNormalItem$w$HmIr92kaTe736Ei30
0001:000053b4* __ZTS13ListBlockItem$w$HmIr92kaTe736Ei30
0001:000053c4* __ZTI13ListBlockItem$w$HmIr92kaTe736Ei30
0001:000053d0* __ZTS11OrderedList$w$HmIr92kaTe736Ei30
0001:000053e0* __ZTI11OrderedList$w$HmIr92kaTe736Ei30
0001:000053ec* __ZTS13UnorderedList$w$HmIr92kaTe736Ei30
0001:000053fc* __ZTI13UnorderedList$w$HmIr92kaTe736Ei30
0001:00005408* __ZTS3Dir$w$HmIr92kaTe736Ei30
0001:00005410* __ZTI3Dir$w$HmIr92kaTe736Ei30
0001:0000541c* __ZTS4Menu$w$HmIr92kaTe736Ei30
0001:00005424* __ZTI4Menu$w$HmIr92kaTe736Ei30
0001:00005430* __ZTI18DefinitionListItem$w$HmIr92kaTe736Ei30
0001:00005438* __ZTS18DefinitionListItem$w$HmIr92kaTe736Ei30
0001:00005450* __ZTS8TermName$w$HmIr92kaTe736Ei30
0001:0000545c* __ZTI8TermName$w$HmIr92kaTe736Ei30
0001:00005468* __ZTS14TermDefinition$w$HmIr92kaTe736Ei30
0001:0000547c* __ZTI14TermDefinition$w$HmIr92kaTe736Ei30
0001:00005488* __ZTS14DefinitionList$w$HmIr92kaTe736Ei30
0001:0000549c* __ZTI14DefinitionList$w$HmIr92kaTe736Ei30
0001:000054c0* __ZTV7Element$w$HmIr92kaTe736Ei30
0001:00005940* __ZTV9TableCell$w$HmIr92kaTe736Ei30
0001:00005958* __ZTV16TableHeadingCell$w$HmIr92kaTe736Ei30
Module: K:\usr\local\src\dssaver.test\Modules\CairoRSS\html2txt\HTMLControl.o(HTMLControl.o)
0001:00005b00  __ZN11HTMLControl10read_cdataEPKcPSs
0001:00005c30* __ZN11HTMLControl8get_charEv
0001:00005c60* __ZN11HTMLControl10unget_charEi
0001:00005dd0* __ZN11HTMLControl6yylex2EP19yy_HTMLParser_stypePi
0001:00006e70  __ZN11HTMLControl5yylexEP19yy_HTMLParser_stype
0001:00005980* __ZNKSt5ctypeIcE8do_widenEc$w$TSDG18kaTe7s8Nz01
0001:00005990* __Z10cmp_nocasePKcS0_$w$TSDG18kaTe7s8Nz01
0001:00005c90* __ZNSt10_List_baseISt4pairISsSsESaIS1_EE8_M_clearEv$w$TSDG18kaTe7s8Nz01
0001:000079b0* __ZTI10HTMLParser$w$TSDG18kaTe7s8Nz01
0001:000079b8* __ZTS10HTMLParser$w$TSDG18kaTe7s8Nz01
0001:000079c8* __ZTS11HTMLControl$w$TSDG18kaTe7s8Nz01
0001:000079d8* __ZTI11HTMLControl$w$TSDG18kaTe7s8Nz01
0001:00007a00* __ZTV11HTMLControl$w$TSDG18kaTe7s8Nz01
Module: K:\usr\local\src\dssaver.test\Modules\CairoRSS\html2txt\HTMLParser.o(HTMLParser.o)
0001:00007a20  __ZN10HTMLParserC2Ev
0001:00007a20* __ZN10HTMLParserC1Ev
0001:00007a40  __ZN10HTMLParserD2Ev
0001:00007a40* __ZN10HTMLParserD1Ev
0001:00007a50* __ZN10HTMLParserD0Ev
0001:00008380  __ZN10HTMLParser7yyparseEv
0001:0000fb60  __ZN10HTMLParser7END_VARE
0001:0000fb64  __ZN10HTMLParser6END_ULE
0001:0000fb68  __ZN10HTMLParser5END_UE
0001:0000fb6c  __ZN10HTMLParser6END_TTE
0001:0000fb70  __ZN10HTMLParser6END_TRE
0001:0000fb74  __ZN10HTMLParser9END_TITLEE
0001:0000fb78  __ZN10HTMLParser6END_THE
0001:0000fb7c  __ZN10HTMLParser12END_TEXTAREAE
0001:0000fb80  __ZN10HTMLParser6END_TDE
0001:0000fb84  __ZN10HTMLParser9END_TABLEE
0001:0000fb88  __ZN10HTMLParser7END_SUPE
0001:0000fb8c  __ZN10HTMLParser7END_SUBE
0001:0000fb90  __ZN10HTMLParser9END_STYLEE
0001:0000fb94  __ZN10HTMLParser10END_STRONGE
0001:0000fb98  __ZN10HTMLParser10END_STRIKEE
0001:0000fb9c  __ZN10HTMLParser9END_SMALLE
0001:0000fba0  __ZN10HTMLParser10END_SELECTE
0001:0000fba4  __ZN10HTMLParser10END_SCRIPTE
0001:0000fba8  __ZN10HTMLParser8END_SAMPE
0001:0000fbac  __ZN10HTMLParser7END_PREE
0001:0000fbb0  __ZN10HTMLParser5END_PE
0001:0000fbb4  __ZN10HTMLParser10END_OPTIONE
0001:0000fbb8  __ZN10HTMLParser6END_OLE
0001:0000fbbc  __ZN10HTMLParser8END_NOBRE
0001:0000fbc0  __ZN10HTMLParser8END_MENUE
0001:0000fbc4  __ZN10HTMLParser7END_MAPE
0001:0000fbc8  __ZN10HTMLParser6END_LIE
0001:0000fbcc  __ZN10HTMLParser7END_KBDE
0001:0000fbd0  __ZN10HTMLParser5END_IE
0001:0000fbd4  __ZN10HTMLParser8END_HTMLE
0001:0000fbd8  __ZN10HTMLParser8END_HEADE
0001:0000fbdc  __ZN10HTMLParser6END_H6E
0001:0000fbe0  __ZN10HTMLParser6END_H5E
0001:0000fbe4  __ZN10HTMLParser6END_H4E
0001:0000fbe8  __ZN10HTMLParser6END_H3E
0001:0000fbec  __ZN10HTMLParser6END_H2E
0001:0000fbf0  __ZN10HTMLParser6END_H1E
0001:0000fbf4  __ZN10HTMLParser8END_FORME
0001:0000fbf8  __ZN10HTMLParser8END_FONTE
0001:0000fbfc  __ZN10HTMLParser6END_EME
0001:0000fc00  __ZN10HTMLParser6END_DTE
0001:0000fc04  __ZN10HTMLParser6END_DLE
0001:0000fc08  __ZN10HTMLParser7END_DIVE
0001:0000fc0c  __ZN10HTMLParser7END_DIRE
0001:0000fc10  __ZN10HTMLParser7END_DFNE
0001:0000fc14  __ZN10HTMLParser6END_DDE
0001:0000fc18  __ZN10HTMLParser8END_CODEE
0001:0000fc1c  __ZN10HTMLParser8END_CITEE
0001:0000fc20  __ZN10HTMLParser10END_CENTERE
0001:0000fc24  __ZN10HTMLParser11END_CAPTIONE
0001:0000fc28  __ZN10HTMLParser8END_BODYE
0001:0000fc2c  __ZN10HTMLParser14END_BLOCKQUOTEE
0001:0000fc30  __ZN10HTMLParser7END_BIGE
0001:0000fc34  __ZN10HTMLParser5END_BE
0001:0000fc38  __ZN10HTMLParser10END_APPLETE
0001:0000fc3c  __ZN10HTMLParser11END_ADDRESSE
0001:0000fc40  __ZN10HTMLParser5END_AE
0001:0000fc44  __ZN10HTMLParser3VARE
0001:0000fc48  __ZN10HTMLParser2ULE
0001:0000fc4c  __ZN10HTMLParser1UE
0001:0000fc50  __ZN10HTMLParser2TTE
0001:0000fc54  __ZN10HTMLParser2TRE
0001:0000fc58  __ZN10HTMLParser5TITLEE
0001:0000fc5c  __ZN10HTMLParser2THE
0001:0000fc60  __ZN10HTMLParser8TEXTAREAE
0001:0000fc64  __ZN10HTMLParser2TDE
0001:0000fc68  __ZN10HTMLParser5TABLEE
0001:0000fc6c  __ZN10HTMLParser3SUPE
0001:0000fc70  __ZN10HTMLParser3SUBE
0001:0000fc74  __ZN10HTMLParser5STYLEE
0001:0000fc78  __ZN10HTMLParser6STRONGE
0001:0000fc7c  __ZN10HTMLParser6STRIKEE
0001:0000fc80  __ZN10HTMLParser5SMALLE
0001:0000fc84  __ZN10HTMLParser6SELECTE
0001:0000fc88  __ZN10HTMLParser6SCRIPTE
0001:0000fc8c  __ZN10HTMLParser4SAMPE
0001:0000fc90  __ZN10HTMLParser3PREE
0001:0000fc94  __ZN10HTMLParser5PARAME
0001:0000fc98  __ZN10HTMLParser1PE
0001:0000fc9c  __ZN10HTMLParser6OPTIONE
0001:0000fca0  __ZN10HTMLParser2OLE
0001:0000fca4  __ZN10HTMLParser4NOBRE
0001:0000fca8  __ZN10HTMLParser4METAE
0001:0000fcac  __ZN10HTMLParser4MENUE
0001:0000fcb0  __ZN10HTMLParser3MAPE
0001:0000fcb4  __ZN10HTMLParser4LINKE
0001:0000fcb8  __ZN10HTMLParser2LIE
0001:0000fcbc  __ZN10HTMLParser3KBDE
0001:0000fcc0  __ZN10HTMLParser7ISINDEXE
0001:0000fcc4  __ZN10HTMLParser5INPUTE
0001:0000fcc8  __ZN10HTMLParser3IMGE
0001:0000fccc  __ZN10HTMLParser1IE
0001:0000fcd0  __ZN10HTMLParser4HTMLE
0001:0000fcd4  __ZN10HTMLParser2HRE
0001:0000fcd8  __ZN10HTMLParser4HEADE
0001:0000fcdc  __ZN10HTMLParser2H6E
0001:0000fce0  __ZN10HTMLParser2H5E
0001:0000fce4  __ZN10HTMLParser2H4E
0001:0000fce8  __ZN10HTMLParser2H3E
0001:0000fcec  __ZN10HTMLParser2H2E
0001:0000fcf0  __ZN10HTMLParser2H1E
0001:0000fcf4  __ZN10HTMLParser4FORME
0001:0000fcf8  __ZN10HTMLParser4FONTE
0001:0000fcfc  __ZN10HTMLParser2EME
0001:0000fd00  __ZN10HTMLParser2DTE
0001:0000fd04  __ZN10HTMLParser2DLE
0001:0000fd08  __ZN10HTMLParser3DIVE
0001:0000fd0c  __ZN10HTMLParser3DIRE
0001:0000fd10  __ZN10HTMLParser3DFNE
0001:0000fd14  __ZN10HTMLParser2DDE
0001:0000fd18  __ZN10HTMLParser4CODEE
0001:0000fd1c  __ZN10HTMLParser4CITEE
0001:0000fd20  __ZN10HTMLParser6CENTERE
0001:0000fd24  __ZN10HTMLParser7CAPTIONE
0001:0000fd28  __ZN10HTMLParser2BRE
0001:0000fd2c  __ZN10HTMLParser4BODYE
0001:0000fd30  __ZN10HTMLParser10BLOCKQUOTEE
0001:0000fd34  __ZN10HTMLParser3BIGE
0001:0000fd38  __ZN10HTMLParser8BASEFONTE
0001:0000fd3c  __ZN10HTMLParser4BASEE
0001:0000fd40  __ZN10HTMLParser1BE
0001:0000fd44  __ZN10HTMLParser4AREAE
0001:0000fd48  __ZN10HTMLParser6APPLETE
0001:0000fd4c  __ZN10HTMLParser7ADDRESSE
0001:0000fd50  __ZN10HTMLParser1AE
0001:0000fd54  __ZN10HTMLParser10SCAN_ERRORE
0001:0000fd58  __ZN10HTMLParser6PCDATAE
0001:0000fd5c  __ZN10HTMLParser7DOCTYPEE
0001:0000fb40* __ZTV10HTMLParser$w$lfs0ahkaTe7K10Vs3
0001:00007a60* __ZNSt10_List_baseISt4pairISsSsESaIS1_EE8_M_clearEv$w$lfs0ahkaTe7K10Vs3
0001:00007b30* __ZN8auto_ptrISt4listISt4pairISsSsESaIS2_EEED1Ev$w$lfs0ahkaTe7K10Vs3
0001:00007b60* __ZN8auto_ptrI5StyleED1Ev$w$lfs0ahkaTe7K10Vs3
0001:00007bd0* __ZN8auto_ptrI6ScriptED1Ev$w$lfs0ahkaTe7K10Vs3
0001:00007c40* __ZN8auto_ptrI6OptionED1Ev$w$lfs0ahkaTe7K10Vs3
0001:00007ca0* __ZN4HeadD1Ev$w$lfs0ahkaTe7K10Vs3
0001:00007e60* __ZNSt10_List_baseI8auto_ptrI7ElementESaIS2_EE8_M_clearEv$w$lfs0ahkaTe7K10Vs3
0001:00007ea0* __ZN8DocumentD1Ev$w$lfs0ahkaTe7K10Vs3
0001:000080e0* __ZNSt10_List_baseI8auto_ptrI8ListItemESaIS2_EE8_M_clearEv$w$lfs0ahkaTe7K10Vs3
0001:00008120* __ZNSt10_List_baseI8auto_ptrI9TableCellESaIS2_EE8_M_clearEv$w$lfs0ahkaTe7K10Vs3
0001:00008160* __ZNSt10_List_baseI8auto_ptrI6OptionESaIS2_EE8_M_clearEv$w$lfs0ahkaTe7K10Vs3
0001:0000fb24* __ZTS10HTMLParser$w$lfs0ahkaTe7K10Vs3
0001:0000fb34* __ZTI10HTMLParser$w$lfs0ahkaTe7K10Vs3
Module: K:\usr\local\src\dssaver.test\Modules\CairoRSS\html2txt\Area.o(Area.o)
0001:0000fdc0* __ZN4LineC2Ej
0001:0000fdc0* __ZN4LineC1Ej
0001:0000fe00* __ZN4LineC2EPKc
0001:0000fe00  __ZN4LineC1EPKc
0001:0000fe50* __ZN4LineC2ERKSs
0001:0000fe50  __ZN4LineC1ERKSs
0001:0000fea0* __ZN4LineD2Ev
0001:0000fea0  __ZN4LineD1Ev
0001:0000fec0* __ZN4Line6resizeEj
0001:0000fee0  __ZN4Line6insertERKS_j
0001:0000ff30* __ZN4Line6insertEPKcj
0001:0000ff80* __ZN4Line6insertERKSsj
0001:0000ff90  __ZN4Line6appendEc
0001:0000ffd0  __ZN4Line6appendERKS_
0001:00010020  __ZN4Line6appendEPKc
0001:00010070  __ZN4Line13add_attributeEc
0001:000100a0* __ZN4AreaC2Ev
0001:000100a0  __ZN4AreaC1Ev
0001:000100d0* __ZN4AreaC2Ejjcc
0001:000100d0  __ZN4AreaC1Ejjcc
0001:00010160* __ZN4AreaC2EPKc
0001:00010160  __ZN4AreaC1EPKc
0001:000101d0* __ZN4AreaC2ERKSs
0001:000101d0  __ZN4AreaC1ERKSs
0001:00010230* __ZN4AreaC2ERK4Line
0001:00010230* __ZN4AreaC1ERK4Line
0001:00010290* __ZN4AreaD2Ev
0001:00010290  __ZN4AreaD1Ev
0001:000102d0  __ZN4Area6resizeEjj
0001:00010470  __ZN4ArearSEj
0001:00010510  __ZN4Area7enlargeEjj
0001:00010570  __ZN4Area6insertERKS_jj
0001:00010600  __ZN4Area6insertERKS_jjjjii
0001:000106c0* __ZN4Area6insertERK4Celljj
0001:00010700* __ZN4Area4fillERK4Celljjjj
0001:00010790  __ZN4Area6insertEPK4Celljjj
0001:000107f0* __ZN4Area6insertEcjj
0001:00010830  __ZN4Area6insertERKSsjj
0001:000108a0  __ZN4Area7prependEi
0001:00010940  __ZN4AreapLERKS_
0001:00010970  __ZN4Area4fillEcjjjj
0001:00010a00  __ZN4Area13add_attributeEc
0001:00010a90  __ZN4Area13add_attributeEcjjjj
0001:00010b10* __Z9backspaceRSo
0001:00010b40  __ZlsRSoRK4Area
0002:00003440  __ZN4Area14use_backspacesE
0001:0000fd60* __ZNKSt5ctypeIcE8do_widenEc$w$RPS21mkaTe7J7zu43
Module: K:\usr\local\src\dssaver.test\Modules\CairoRSS\html2txt\format.o(format.o)
0001:00011130  __ZNK6PCData11line_formatEv
0001:00011180  __ZNK9LineBreak11line_formatEv
0001:000111d0* __ZN10Formatting14loadPropertiesERSi
0001:000111f0* __ZN10Formatting9getStringEPKcS1_
0001:00011220* __ZN10Formatting9getStringEPKc
0001:00011240  __ZN10Formatting6getIntEPKci
0001:000112c0* __ZN11BlockFormatC2EPKcjjjj
0001:000112c0* __ZN11BlockFormatC1EPKcjjjj
0001:00011380  __ZNK14HorizontalRule6formatEji
0001:00011560* __ZNK11BlockFormat15effective_widthEj
0001:000115a0* __ZNK10ListFormat10get_indentEi
0001:00011620* __ZNK10ListFormat8get_typeEPKSt4listISt4pairISsSsESaIS2_EEii
0001:00011a50  __ZNK13ListBlockItem6formatEjijPi
0001:00011b90  __ZNK8TextArea6formatEji
0001:00011e90  __ZNK4Body6formatEji
0001:00012000* __ZNK8Document6formatEji
0001:00012170  __ZNK16TableHeadingCell6formatEji
0001:000121e0  __ZNK14DefinitionList6formatEji
0001:00012450  __ZNK8TermName6formatEji
0001:000125c0  __ZNK14TermDefinition6formatEji
0001:00012740  __ZNK9Paragraph6formatEji
0001:000128d0  __ZNK8Division6formatEji
0001:00012950  __ZNK6Center6formatEji
0001:00012980  __ZNK10BlockQuote6formatEji
0001:00012af0  __ZNK7Address6formatEji
0001:00012c50  __ZNK4Form6formatEji
0001:00012c80  __ZNK5Font26formatEji
0001:00012ca0* __ZNK4Body6formatEjjiRSo
0001:00013110  __ZNK8Document6formatEjjiRSo
0001:00013410  __ZNK5Font211line_formatEv
0001:00013420  __ZNK7NoBreak11line_formatEv
0001:00013470  __ZNK12Preformatted6formatEji
0001:000136e0  __ZNK7Caption6formatEji
0001:00013780  __ZNK6Select11line_formatEv
0001:00013a80  __ZNK6Applet6formatEji
0001:00013e00  __ZNK6Applet11line_formatEv
0001:000141f0  __ZNK5Image11line_formatEv
0001:00014840  __ZNK5Input11line_formatEv
0001:00015530* __ZN10Formatting12getIntVectorEPKcS1_
0001:00015a30* __ZN10Formatting11setPropertyEPKcS1_
0001:000160b0* __ZN10Formatting15getStringVectorEPKcS1_
0001:00016250* __ZN10Formatting13getAttributesEPKcc
0001:000165d0  __ZNK7Heading6formatEji
0001:00017130  __ZNK4Font11line_formatEv
0001:00017190  __ZNK4Font6formatEji
0001:00017650  __ZNK6Phrase11line_formatEv
0001:000176b0  __ZNK6Phrase6formatEji
0001:000178a0  __ZNK6Anchor11line_formatEv
0001:000179b0  __ZNK6Anchor6formatEji
0001:00017b00* __ZN10ListFormatC2EPKcjjjS1_S1_
0001:00017b00* __ZN10ListFormatC1EPKcjjjS1_S1_
0001:00017ce0  __ZNK4Menu6formatEji
0001:00017f80  __ZNK3Dir6formatEji
0001:00018200  __ZNK13UnorderedList6formatEji
0001:00018480  __ZNK11OrderedList6formatEji
0001:00018860  __ZNK14ListNormalItem6formatEjijPi
0001:00010db0* __ZNKSt5ctypeIcE8do_widenEc$w$Dw69zykaTe7vMBti0
0001:000110f0* __Z10cmp_nocaseRKSsPKc$w$Dw69zykaTe7vMBti0
0001:00011760* __ZN8auto_ptrI4AreaED1Ev$w$Dw69zykaTe7vMBti0
0001:00011ac0* __ZN8auto_ptrISt6vectorISsSaISsEEED1Ev$w$Dw69zykaTe7vMBti0
0001:00011b60* __ZN8auto_ptrI4LineED1Ev$w$Dw69zykaTe7vMBti0
0001:000139c0* __ZStplIcSt11char_traitsIcESaIcEESbIT_T0_T1_EPKS3_RKS6_$w$Dw69zykaTe7vMBti0
0001:00014120* __ZStplIcSt11char_traitsIcESaIcEESbIT_T0_T1_ES3_RKS6_$w$Dw69zykaTe7vMBti0
0001:00014750* __ZStplIcSt11char_traitsIcESaIcEESbIT_T0_T1_ERKS6_S3_$w$Dw69zykaTe7vMBti0
0001:00015300* __ZNSt8_Rb_treeISsSt4pairIKSsSsESt10_Select1stIS2_ESt4lessISsESaIS2_EE8_M_eraseEPSt13_Rb_tree_nodeIS2_E$w$Dw69zykaTe7vMBti0
0001:000153e0* __ZNSt6vectorIiSaIiEE13_M_insert_auxEN9__gnu_cxx17__normal_iteratorIPiS1_EERKi$w$Dw69zykaTe7vMBti0
0001:00015630* __ZNSt8_Rb_treeISsSt4pairIKSsSsESt10_Select1stIS2_ESt4lessISsESaIS2_EE10_M_insert_EPSt18_Rb_tree_node_baseSA_RKS2_$w$Dw69zykaTe7vMBti0
0001:00015750* __ZNSt8_Rb_treeISsSt4pairIKSsSsESt10_Select1stIS2_ESt4lessISsESaIS2_EE24_M_get_insert_unique_posERS1_$w$Dw69zykaTe7vMBti0
0001:00015850* __ZNSt8_Rb_treeISsSt4pairIKSsSsESt10_Select1stIS2_ESt4lessISsESaIS2_EE29_M_get_insert_hint_unique_posESt23_Rb_tree_const_iteratorIS2_ERS1_$w$Dw69zykaTe7vMBti0
0001:00015d40* __ZNSt12_Destroy_auxILb0EE9__destroyIPSsEEvT_S3_$w$Dw69zykaTe7vMBti0
0001:00015da0* __ZNSt6vectorISsSaISsEE13_M_insert_auxEN9__gnu_cxx17__normal_iteratorIPSsS1_EERKSs$w$Dw69zykaTe7vMBti0
0001:00018740* __ZNSs12_S_constructIPcEES0_T_S1_RKSaIcESt20forward_iterator_tag$w$Dw69zykaTe7vMBti0
Module: K:\usr\local\src\dssaver.test\Modules\CairoRSS\html2txt\sgml.o(sgml.o)
0001:00019590  __Z21replace_sgml_entitiesPSs
Module: K:\usr\local\src\dssaver.test\Modules\CairoRSS\html2txt\table.o(table.o)
0001:0001ac50  __ZNK5Table6formatEji
0001:0001ab50* __ZN8auto_ptrI4AreaED1Ev$w$nO3JpKkaTe7oFzxM3
0001:0001ab80* __ZNSt10_List_baseI8auto_ptrI11LogicalCellESaIS2_EE8_M_clearEv$w$nO3JpKkaTe7oFzxM3
Module: K:\usr\local\src\dssaver.test\Modules\CairoRSS\html2txt\Properties.o(Properties.o)
0001:0001c040* __ZN10Properties12readPropertyERSiPSsS1_
0001:0001c4a0  __ZNK10Properties11getPropertyEPKcS1_
0001:0001c530  __ZNK10Properties11getPropertyEPKc
0001:0001c9c0  __ZN10Properties4loadERSi
0001:0001bc60* __ZNKSt5ctypeIcE8do_widenEc$w$55J5kPkaTe7f6dPv1
0001:0001c3d0* __ZNKSt8_Rb_treeISsSt4pairIKSsSsESt10_Select1stIS2_ESt4lessISsESaIS2_EE4findERS1_$w$55J5kPkaTe7f6dPv1
0001:0001c5c0* __ZNSt8_Rb_treeISsSt4pairIKSsSsESt10_Select1stIS2_ESt4lessISsESaIS2_EE10_M_insert_EPSt18_Rb_tree_node_baseSA_RKS2_$w$55J5kPkaTe7f6dPv1
0001:0001c6e0* __ZNSt8_Rb_treeISsSt4pairIKSsSsESt10_Select1stIS2_ESt4lessISsESaIS2_EE24_M_get_insert_unique_posERS1_$w$55J5kPkaTe7f6dPv1
0001:0001c7e0* __ZNSt8_Rb_treeISsSt4pairIKSsSsESt10_Select1stIS2_ESt4lessISsESaIS2_EE29_M_get_insert_hint_unique_posESt23_Rb_tree_const_iteratorIS2_ERS1_$w$55J5kPkaTe7f6dPv1
Module: K:\usr\local\src\dssaver.test\Modules\CairoRSS\html2txt\cmp_nocase.o(cmp_nocase.o)
0001:0001cd70  __Z11_cmp_nocasePKcjS0_j
Module: R:\tmp\ldconv_libgcc_eh_a_115586d5275162250.lib(emx-dllinit.obj)
0001:0001ce00  _DLL_InitTerm
Module: K:\usr\lib\libend.lib(src/libend/386/endlink386.asm)
0002:00006b40  _end
0002:00006350  _edata
Module: K:\usr\lib\libend.lib(src/libend/386/end.asm)
0001:00021870* _etext
0001:00021870* __etext
0000:00000000* WEAK$ZERO
0002:00006b40  __end
0002:00006350  __edata
Module: R:\tmp\ldconv_libgcc_eh_a_115586d5275162250.lib(unwind-dw2.obj)
0001:0001f730* __Unwind_GetGR
0001:0001f780* __Unwind_GetCFA
0001:0001f790* __Unwind_SetGR
0001:0001f7e0* __Unwind_GetIP
0001:0001f7f0* __Unwind_GetIPInfo
0001:0001f810* __Unwind_SetIP
0001:0001f820* __Unwind_GetLanguageSpecificData
0001:0001f830* __Unwind_GetRegionStart
0001:0001f840* __Unwind_FindEnclosingFunction
0001:0001f870* __Unwind_GetDataRelBase
0001:0001f880* __Unwind_GetTextRelBase
0001:0001f890* ___frame_state_for
0001:0001f970* __Unwind_RaiseException
0001:0001fac0* __Unwind_ForcedUnwind
0001:0001fb80  __Unwind_Resume
0001:0001fc30* __Unwind_Resume_or_Rethrow
0001:0001fcf0* __Unwind_DeleteException
0001:0001fd10* __Unwind_Backtrace
Module: R:\tmp\ldconv_libgcc_eh_a_115586d5275162250.lib(emx-eh.obj)
0001:0001fd90  ___ehInit
0001:0001fdd0* ___ehTerm
Module: R:\tmp\ldconv_libgcc_a_115586d5275186c40.lib(_chkstk_ms.obj)
0001:0001fe10  ___chkstk_ms
Module: R:\tmp\ldconv_libgcc_eh_a_115586d5275162250.lib(emx-ctordtor.obj)
0001:0001fe40  ___ctordtorInit
0001:0001fe80  ___ctordtorTerm
Module: R:\tmp\ldconv_libgcc_eh_a_115586d5275162250.lib(unwind-dw2-fde.obj)
0001:00021020* ___register_frame_info_bases
0001:00021050* ___register_frame_info
0001:00021080* ___register_frame
0001:000210d0* ___register_frame_info_table_bases
0001:000212b0* ___register_frame_info_table
0001:000212e0  ___register_frame_table
0001:00021310* ___deregister_frame_info_bases
0001:00021560* ___deregister_frame_info
0001:00021570  ___deregister_frame
0001:000215a0  __Unwind_Find_FDE


                        +----------------------+
                        |   Imported Symbols   |
                        +----------------------+

Symbol                              Module
======                              ======

___libc_ForkRegisterModule          libc066
___init_dll                         libc066
___libc_Back_termDll                libc066
___libc_ForkDeregisterModule        libc066
__atfork_callback                   libc066
__ZdlPv                             stdcpp6
__ZNSt8ios_base4InitC1Ev            stdcpp6
__ZNSt8ios_base4InitD1Ev            stdcpp6
__ZNSt9strstreamC1EPciSt13_Ios_Openmode stdcpp6
__ZNSt9strstreamC1Ev                stdcpp6
__ZSt16__ostream_insertIcSt11char_traitsIcEERSt13basic_ostreamIT_T0_ES6_PKS3_i stdcpp6
__ZNKSt9strstream6pcountEv          stdcpp6
__ZNSt9strstream3strEv              stdcpp6
__ZNSt9strstreamD1Ev                stdcpp6
__ZTVN10__cxxabiv117__class_type_infoE stdcpp6
__ZTVN10__cxxabiv120__si_class_type_infoE stdcpp6
___gxx_personality_v0               stdcpp6
__ZNSs4_Rep20_S_empty_rep_storageE  stdcpp6
__ZN9__gnu_cxx18__exchange_and_addEPVii stdcpp6
__ZNSs4_Rep10_M_destroyERKSaIcE     stdcpp6
__ZNSo3putEc                        stdcpp6
__ZNSo5flushEv                      stdcpp6
__ZNKSt5ctypeIcE13_M_widen_initEv   stdcpp6
__ZSt16__throw_bad_castv            stdcpp6
__ZNSolsEi                          stdcpp6
__ZNSsC1ERKSs                       stdcpp6
__ZNSsC1EPKcRKSaIcE                 stdcpp6
___cxa_pure_virtual                 stdcpp6
__ZNSi3getEv                        stdcpp6
__ZNSs7reserveEj                    stdcpp6
_toupper                            libc066
__ZNSs9_M_mutateEjjj                stdcpp6
__ZSt24__throw_out_of_range_fmtPKcz stdcpp6
__Znwj                              stdcpp6
_isalpha                            libc066
_isalnum                            libc066
_isspace                            libc066
__ZNSs14_M_replace_auxEjjjc         stdcpp6
__ZNSt8__detail15_List_node_base7_M_hookEPS0_ stdcpp6
__ZSt4cerr                          stdcpp6
___cxa_begin_catch                  stdcpp6
___cxa_rethrow                      stdcpp6
__ZNSsC1EjcRKSaIcE                  stdcpp6
__ZNSs9push_backEc                  stdcpp6
___cxa_end_catch                    stdcpp6
__ZNSs12_M_leak_hardEv              stdcpp6
__ZNSs7replaceEjjPKcj               stdcpp6
___stderrp                          libc066
__ZNSt8__detail15_List_node_base11_M_transferEPS0_S1_ stdcpp6
__ZNSs6assignERKSs                  stdcpp6
__ZSt9terminatev                    stdcpp6
___cxa_guard_acquire                stdcpp6
___cxa_guard_release                stdcpp6
___cxa_guard_abort                  stdcpp6
__ZNKSs7compareEPKc                 stdcpp6
__ZNSs6appendEPKcj                  stdcpp6
__ZNSs6appendERKSs                  stdcpp6
__ZNSs6appendEjc                    stdcpp6
__ZNSs6assignEPKc                   stdcpp6
__ZSt29_Rb_tree_insert_and_rebalancebPSt18_Rb_tree_node_baseS0_RS_ stdcpp6
__ZSt18_Rb_tree_decrementPSt18_Rb_tree_node_base stdcpp6
__ZSt18_Rb_tree_incrementPSt18_Rb_tree_node_base stdcpp6
__ZNSs6assignEPKcj                  stdcpp6
__ZNSsC1EPKcjRKSaIcE                stdcpp6
__ZSt19__throw_logic_errorPKc       stdcpp6
__ZNSs4_Rep9_S_createEjjRKSaIcE     stdcpp6
__ZNSt8ios_baseC2Ev                 stdcpp6
__ZTTSt19basic_ostringstreamIcSt11char_traitsIcESaIcEE stdcpp6
__ZTVSt9basic_iosIcSt11char_traitsIcEE stdcpp6
__ZNSt9basic_iosIcSt11char_traitsIcEE4initEPSt15basic_streambufIcS1_E stdcpp6
__ZTVSt19basic_ostringstreamIcSt11char_traitsIcESaIcEE stdcpp6
__ZTVSt15basic_streambufIcSt11char_traitsIcEE stdcpp6
__ZNSt6localeC1Ev                   stdcpp6
__ZTVSt15basic_stringbufIcSt11char_traitsIcESaIcEE stdcpp6
__ZNSt6localeD1Ev                   stdcpp6
__ZNSt8ios_baseD2Ev                 stdcpp6
__ZNSt19basic_ostringstreamIcSt11char_traitsIcESaIcEED1Ev stdcpp6
__Znaj                              stdcpp6
__ZdaPv                             stdcpp6
__ZSt7getlineIcSt11char_traitsIcESaIcEERSt13basic_istreamIT_T0_ES7_RSbIS4_S5_T1_ES4_ stdcpp6
__ZNSs6assignERKSsjj                stdcpp6
__CRT_term                          libc066
__CRT_init                          libc066
__std_free                          libc066
__std_malloc                        libc066
__std_strncpy                       libc066
___libc_Back_threadSleep            libc066
__std_abort                         libc066
__std_strlen                        libc066
__std_atoi                          libc066
__std_bsearch                       libc066
__std_memcpy                        libc066
__std_fprintf                       libc066
__std_fwrite                        libc066
__std_fputc                         libc066
__std_realloc                       libc066
__std_memmove                       libc066
__std_sprintf                       libc066
__std_memcmp                        libc066
__std_atexit                        libc066
__std_strcmp                        libc066
___ctordtorInit1                    libc066
___ctordtorTerm1                    libc066
__fmutex_create                     libc066
___fmutex_request_internal          libc066
___libc_GpFIBLIS                    libc066
___fmutex_release_internal_must_complete libc066
___fmutex_request_internal_must_complete libc066
___fmutex_release_internal          libc066


                        +--------------------+
                        |   Libraries Used   |
                        +--------------------+

K:\usr\lib\stdc++.lib
R:\tmp\ldconv_libgcc_eh_a_115586d5275162250.lib
R:\tmp\ldconv_libgcc_a_115586d5275186c40.lib
K:\usr\lib\libc_alias.lib
K:\usr\lib\libc_dll.lib
K:\usr\lib\libend.lib


                        +-----------------------+
                        |   Linker Statistics   |
                        +-----------------------+

Stack size:  0000 (0.)
Memory size:  000283b0 (164784.)
Link time: 00:00.83
