** EXPERIMENTAL (HLL) ** Open Watcom Linker Version 2.0beta1 Limited Availability
Portions Copyright (c) 1985-2002 Sybase, Inc. All Rights Reserved.
Created on:       18/02/26 21:10:12
Executable Image: html2txt.dll
creating an OS/2 EMX dynamic link library


                        +------------+
                        |   Groups   |
                        +------------+

Group                           Address              Size
=====                           =======              ====

CGROUP                          0001:00000000        0001db00
DGROUP                          0002:00000000        000061e0



                        +--------------+
                        |   Segments   |
                        +--------------+

Segment                Class          Group          Address         Size
=======                =====          =====          =======         ====

TEXT32                 CODE           CGROUP         0001:00000000   0001db00
________TEXT           CODE           CGROUP         0001:0001db00   00000000
DATA32                 DATA           DGROUP         0002:00000000   000059c0
SET1__os2dll           DATA           DGROUP         0002:000059c0   00000004
SET2__os2dll           DATA           DGROUP         0002:000059c4   00000000
SET3__os2dll           DATA           DGROUP         0002:000059c4   00000004
SET1___CTOR_LIST__     DATA           DGROUP         0002:000059c8   00000004
SET2___CTOR_LIST__     DATA           DGROUP         0002:000059cc   00000018
SET3___CTOR_LIST__     DATA           DGROUP         0002:000059e4   00000004
SET1___DTOR_LIST__     DATA           DGROUP         0002:000059e8   00000004
SET2___DTOR_LIST__     DATA           DGROUP         0002:000059ec   00000018
SET3___DTOR_LIST__     DATA           DGROUP         0002:00005a04   00000004
SET1___crtinit1__      DATA           DGROUP         0002:00005a08   00000004
SET2___crtinit1__      DATA           DGROUP         0002:00005a0c   00000000
SET3___crtinit1__      DATA           DGROUP         0002:00005a0c   00000004
SET1___crtexit1__      DATA           DGROUP         0002:00005a10   00000004
SET2___crtexit1__      DATA           DGROUP         0002:00005a14   00000000
SET3___crtexit1__      DATA           DGROUP         0002:00005a14   00000004
SET1___eh_frame__      DATA           DGROUP         0002:00005a18   00000004
SET2___eh_frame__      DATA           DGROUP         0002:00005a1c   0000002c
SET3___eh_frame__      DATA           DGROUP         0002:00005a48   00000004
SET1___eh_init__       DATA           DGROUP         0002:00005a4c   00000004
SET2___eh_init__       DATA           DGROUP         0002:00005a50   00000004
SET3___eh_init__       DATA           DGROUP         0002:00005a54   00000004
SET1___eh_term__       DATA           DGROUP         0002:00005a58   00000004
SET2___eh_term__       DATA           DGROUP         0002:00005a5c   00000004
SET3___eh_term__       DATA           DGROUP         0002:00005a60   00000004
SET1___fork_parent1__  DATA           DGROUP         0002:00005a64   00000004
SET2___fork_parent1__  DATA           DGROUP         0002:00005a68   00000000
SET3___fork_parent1__  DATA           DGROUP         0002:00005a68   00000004
SET1___fork_child1__   DATA           DGROUP         0002:00005a6c   00000004
SET2___fork_child1__   DATA           DGROUP         0002:00005a70   00000000
SET3___fork_child1__   DATA           DGROUP         0002:00005a70   00000004
________DATA           DATA           DGROUP         0002:00005a80   00000000
BSS32                  BSS            DGROUP         0002:00005a80   00000760
c_common               BSS            DGROUP         0002:000061e0   00000000
________BSS            BSS            DGROUP         0002:000061e0   00000000


                        +----------------+
                        |   Memory Map   |
                        +----------------+

* = unreferenced symbol
+ = symbol only referenced locally

Address        Symbol
=======        ======

Module: K:\usr\lib\dll0.obj({standard input})
0001:00000000* __text
0002:00000000* __data
0002:00000000* ___data_start
0002:00005a80* ___bss_start
0002:000059c0+ __os2dll
0002:000059c8  ___CTOR_LIST__
0002:000059e8  ___DTOR_LIST__
0002:00005a08* ___crtinit1__
0002:00005a10* ___crtexit1__
0002:00005a18  ___eh_frame__
0002:00005a4c  ___eh_init__
0002:00005a58  ___eh_term__
0002:00005a64+ ___fork_parent1__
0002:00005a6c+ ___fork_child1__
Module: K:\usr\local\src\dssaver\Modules\CairoRSS\html2txt\html2text.o(html2text.o)
0001:000000a0* __ZN11LocalParser7yyerrorEPc
0001:000000b0* __ZN11LocalParser7processERK8Document
0001:00000130+ html2text_free
0001:00000190+ html2text_convert
0002:00000080  _use_iso8859
0001:000000e0* __ZN11LocalParserD1Ev$w$J9jM8WViPp70Plwu1
0001:00000100* __ZN11LocalParserD0Ev$w$J9jM8WViPp70Plwu1
0001:00000440* __ZTV11LocalParser$w$J9jM8WViPp70Plwu1
0001:000003dc* __ZTI10HTMLParser$w$J9jM8WViPp70Plwu1
0001:000003e4* __ZTS10HTMLParser$w$J9jM8WViPp70Plwu1
0001:000003f4* __ZTI11HTMLControl$w$J9jM8WViPp70Plwu1
0001:00000400* __ZTS11HTMLControl$w$J9jM8WViPp70Plwu1
0001:0000040e* __ZTS11LocalParser$w$J9jM8WViPp70Plwu1
0001:0000041c* __ZTI11LocalParser$w$J9jM8WViPp70Plwu1
Module: K:\usr\local\src\dssaver\Modules\CairoRSS\html2txt\html.o(html.o)
0001:00000510* __ZNK13ListBlockItem7unparseERSoPFS0_S0_E
0001:000006a0* __ZNK14TermDefinition7unparseERSoPFS0_S0_E
0001:00000730* __ZNK10BlockQuote7unparseERSoPFS0_S0_E
0001:000007c0* __ZNK6Center7unparseERSoPFS0_S0_E
0001:00000850* __ZNK7Address7unparseERSoPFS0_S0_E
0001:000008d0* __ZNK8TermName7unparseERSoPFS0_S0_E
0001:00000960* __ZNK7NoBreak7unparseERSoPFS0_S0_E
0001:00000ac0* __ZNK4Body7unparseERSoPFS0_S0_E
0001:00000b70* __ZNK9Paragraph7unparseERSoPFS0_S0_E
0001:00000c20* __ZNK5Image7unparseERSoPFS0_S0_E
0001:00000ca0* __ZNK6Applet7unparseERSoPFS0_S0_E
0001:00000d50* __ZNK5Param7unparseERSoPFS0_S0_E
0001:00000dd0* __ZNK8Division7unparseERSoPFS0_S0_E
0001:00000e80* __ZNK4Form7unparseERSoPFS0_S0_E
0001:00000f30* __ZNK12Preformatted7unparseERSoPFS0_S0_E
0001:00000fe0* __ZNK14HorizontalRule7unparseERSoPFS0_S0_E
0001:00001060* __ZNK5Input7unparseERSoPFS0_S0_E
0001:000010e0* __ZNK11OrderedList7unparseERSoPFS0_S0_E
0001:00001190* __ZNK13UnorderedList7unparseERSoPFS0_S0_E
0001:00001240* __ZNK3Dir7unparseERSoPFS0_S0_E
0001:000012f0* __ZNK4Menu7unparseERSoPFS0_S0_E
0001:000013a0* __ZNK14ListNormalItem7unparseERSoPFS0_S0_E
0001:00001450* __ZNK6Anchor7unparseERSoPFS0_S0_E
0001:00001500* __ZNK8BaseFont7unparseERSoPFS0_S0_E
0001:00001570* __ZNK9LineBreak7unparseERSoPFS0_S0_E
0001:000015f0* __ZNK5Font27unparseERSoPFS0_S0_E
0001:000016a0* __ZNK9TableCell7unparseERSoPFS0_S0_E
0001:00001750* __ZNK16TableHeadingCell7unparseERSoPFS0_S0_E
0001:00001810* __ZNK8TextArea7unparseERSoPFS0_S0_E
0001:00001910* __ZNK7Heading7unparseERSoPFS0_S0_E
0001:00001d20* __ZNK4Font7unparseERSoPFS0_S0_E
0001:00001f00* __ZNK6Phrase7unparseERSoPFS0_S0_E
0001:000020b0* __ZNK14DefinitionList7unparseERSoPFS0_S0_E
0001:00002500* __ZNK3Map7unparseERSoPFS0_S0_E
0001:00002620* __ZNK6PCData7unparseERSoPFS0_S0_E
0001:000027a0* __ZN7ElementD2Ev
0001:000027a0* __ZN7ElementD1Ev
0001:000027b0* __ZN7ElementD0Ev
0001:000027d0* __ZNK6Script7unparseERSoPFS0_S0_E
0001:00002890* __ZNK5Style7unparseERSoPFS0_S0_E
0001:00002970* __ZNK4Head7unparseERSoPFS0_S0_E
0001:00002db0* __ZNK8Document7unparseERSoPFS0_S0_E
0001:00002e80* __ZNK6Option7unparseERSoPFS0_S0_E
0001:00002f90* __ZNK6Select7unparseERSoPFS0_S0_E
0001:000030c0* __ZNK8TableRow7unparseERSoPFS0_S0_E
0001:00003190* __ZNK7Caption7unparseERSoPFS0_S0_E
0001:00003240* __ZNK5Table7unparseERSoPFS0_S0_E
0001:00003320  __Z13get_attributePKSt4listISt4pairISsSsESaIS1_EEPKcS7_
0001:000033c0  __Z13get_attributePKSt4listISt4pairISsSsESaIS1_EEPKcPb
0001:00003460  __Z13get_attributePKSt4listISt4pairISsSsESaIS1_EEPKci
0001:000034d0  __Z13get_attributePKSt4listISt4pairISsSsESaIS1_EEPKciS7_iz
0001:00003590  __Z13get_attributePKSt4listISt4pairISsSsESaIS1_EEPKcS7_iS7_iz
0001:00000460* __ZNKSt5ctypeIcE8do_widenEc$w$38Z0EaWiPp736Ei30
0001:00000470* __ZNK7Element11line_formatEv$w$38Z0EaWiPp736Ei30
0001:00000480* __ZNK7Element6formatEji$w$38Z0EaWiPp736Ei30
0001:00000490* __ZN7Element9to_PCDataEv$w$38Z0EaWiPp736Ei30
0001:000004a0* __ZN6PCData9to_PCDataEv$w$38Z0EaWiPp736Ei30
0001:000004c0* __ZN13ListBlockItemD1Ev$w$38Z0EaWiPp736Ei30
0001:00005d38* __ZTV13ListBlockItem$w$38Z0EaWiPp736Ei30
0001:000004e0* __ZN13ListBlockItemD0Ev$w$38Z0EaWiPp736Ei30
0001:000005e0* __ZN6PCDataD0Ev$w$38Z0EaWiPp736Ei30
0001:00005aa0* __ZTV6PCData$w$38Z0EaWiPp736Ei30
0001:00000640* __ZN6PCDataD1Ev$w$38Z0EaWiPp736Ei30
0001:000019f0* __ZN7AddressD1Ev$w$38Z0EaWiPp736Ei30
0001:00005bc0* __ZTV7Address$w$38Z0EaWiPp736Ei30
0001:00001a50* __ZN6PhraseD1Ev$w$38Z0EaWiPp736Ei30
0001:00005e20* __ZTV6Phrase$w$38Z0EaWiPp736Ei30
0001:00001ab0* __ZN14TermDefinitionD1Ev$w$38Z0EaWiPp736Ei30
0001:00005d98* __ZTV14TermDefinition$w$38Z0EaWiPp736Ei30
0001:00001b10* __ZN4FontD1Ev$w$38Z0EaWiPp736Ei30
0001:00005e00* __ZTV4Font$w$38Z0EaWiPp736Ei30
0001:00001b70* __ZN6CenterD1Ev$w$38Z0EaWiPp736Ei30
0001:00005b80* __ZTV6Center$w$38Z0EaWiPp736Ei30
0001:00001bd0* __ZN8TermNameD1Ev$w$38Z0EaWiPp736Ei30
0001:00005d80* __ZTV8TermName$w$38Z0EaWiPp736Ei30
0001:00001c30* __ZN7NoBreakD1Ev$w$38Z0EaWiPp736Ei30
0001:00005de0* __ZTV7NoBreak$w$38Z0EaWiPp736Ei30
0001:00001c90* __ZN10BlockQuoteD1Ev$w$38Z0EaWiPp736Ei30
0001:00005ba0* __ZTV10BlockQuote$w$38Z0EaWiPp736Ei30
0001:00002170* __ZN8TermNameD0Ev$w$38Z0EaWiPp736Ei30
0001:000021e0* __ZN6PhraseD0Ev$w$38Z0EaWiPp736Ei30
0001:00002250* __ZN7AddressD0Ev$w$38Z0EaWiPp736Ei30
0001:000022c0* __ZN4FontD0Ev$w$38Z0EaWiPp736Ei30
0001:00002330* __ZN14TermDefinitionD0Ev$w$38Z0EaWiPp736Ei30
0001:000023a0* __ZN7NoBreakD0Ev$w$38Z0EaWiPp736Ei30
0001:00002410* __ZN6CenterD0Ev$w$38Z0EaWiPp736Ei30
0001:00002480* __ZN10BlockQuoteD0Ev$w$38Z0EaWiPp736Ei30
0001:00003670* __ZN8auto_ptrISt4listIS_I7ElementESaIS2_EEED1Ev$w$38Z0EaWiPp736Ei30
0001:000036d0* __ZNSt10_List_baseISt4pairISsSsESaIS1_EE8_M_clearEv$w$38Z0EaWiPp736Ei30
0001:000037b0* __ZN8auto_ptrISt4listISt4pairISsSsESaIS2_EEED1Ev$w$38Z0EaWiPp736Ei30
0001:000037e0* __ZN5InputD1Ev$w$38Z0EaWiPp736Ei30
0001:00005c40* __ZTV5Input$w$38Z0EaWiPp736Ei30
0001:00003820* __ZN8BaseFontD1Ev$w$38Z0EaWiPp736Ei30
0001:00005e60* __ZTV8BaseFont$w$38Z0EaWiPp736Ei30
0001:00003860* __ZN5ImageD1Ev$w$38Z0EaWiPp736Ei30
0001:00005b00* __ZTV5Image$w$38Z0EaWiPp736Ei30
0001:000038a0* __ZN9LineBreakD1Ev$w$38Z0EaWiPp736Ei30
0001:00005e80* __ZTV9LineBreak$w$38Z0EaWiPp736Ei30
0001:000038e0* __ZN5ParamD1Ev$w$38Z0EaWiPp736Ei30
0001:00005b40* __ZTV5Param$w$38Z0EaWiPp736Ei30
0001:00003920* __ZN14HorizontalRuleD1Ev$w$38Z0EaWiPp736Ei30
0001:00005c20* __ZTV14HorizontalRule$w$38Z0EaWiPp736Ei30
0001:00003960* __ZN4BodyD1Ev$w$38Z0EaWiPp736Ei30
0001:00005a80* __ZTV4Body$w$38Z0EaWiPp736Ei30
0001:00003a00* __ZN8BaseFontD0Ev$w$38Z0EaWiPp736Ei30
0001:00003a40* __ZN9TableCellD1Ev$w$38Z0EaWiPp736Ei30
0001:00003ae0* __ZN5Font2D1Ev$w$38Z0EaWiPp736Ei30
0001:00005ec0* __ZTV5Font2$w$38Z0EaWiPp736Ei30
0001:00003b80* __ZN6AnchorD1Ev$w$38Z0EaWiPp736Ei30
0001:00005e40* __ZTV6Anchor$w$38Z0EaWiPp736Ei30
0001:00003c20* __ZN14ListNormalItemD1Ev$w$38Z0EaWiPp736Ei30
0001:00005d20* __ZTV14ListNormalItem$w$38Z0EaWiPp736Ei30
0001:00003cc0* __ZN9LineBreakD0Ev$w$38Z0EaWiPp736Ei30
0001:00003d00* __ZN12PreformattedD1Ev$w$38Z0EaWiPp736Ei30
0001:00005c00* __ZTV12Preformatted$w$38Z0EaWiPp736Ei30
0001:00003da0* __ZN5ParamD0Ev$w$38Z0EaWiPp736Ei30
0001:00003de0* __ZN5InputD0Ev$w$38Z0EaWiPp736Ei30
0001:00003e20* __ZN14HorizontalRuleD0Ev$w$38Z0EaWiPp736Ei30
0001:00003e60* __ZN8DivisionD1Ev$w$38Z0EaWiPp736Ei30
0001:00005b60* __ZTV8Division$w$38Z0EaWiPp736Ei30
0001:00003f00* __ZN6AppletD1Ev$w$38Z0EaWiPp736Ei30
0001:00005b20* __ZTV6Applet$w$38Z0EaWiPp736Ei30
0001:00003fa0* __ZN5ImageD0Ev$w$38Z0EaWiPp736Ei30
0001:00003fe0* __ZN7HeadingD1Ev$w$38Z0EaWiPp736Ei30
0001:00005ac0* __ZTV7Heading$w$38Z0EaWiPp736Ei30
0001:00004080* __ZN9ParagraphD1Ev$w$38Z0EaWiPp736Ei30
0001:00005ae0* __ZTV9Paragraph$w$38Z0EaWiPp736Ei30
0001:00004120* __ZN4FormD1Ev$w$38Z0EaWiPp736Ei30
0001:00005be0* __ZTV4Form$w$38Z0EaWiPp736Ei30
0001:000041c0* __ZN16TableHeadingCellD1Ev$w$38Z0EaWiPp736Ei30
0001:00004260* __ZN8TextAreaD1Ev$w$38Z0EaWiPp736Ei30
0001:00005c80* __ZTV8TextArea$w$38Z0EaWiPp736Ei30
0001:000042d0* __ZN6AppletD0Ev$w$38Z0EaWiPp736Ei30
0001:00004370* __ZN4BodyD0Ev$w$38Z0EaWiPp736Ei30
0001:00004410* __ZN12PreformattedD0Ev$w$38Z0EaWiPp736Ei30
0001:000044b0* __ZN14ListNormalItemD0Ev$w$38Z0EaWiPp736Ei30
0001:00004550* __ZN7HeadingD0Ev$w$38Z0EaWiPp736Ei30
0001:000045f0* __ZN8DivisionD0Ev$w$38Z0EaWiPp736Ei30
0001:00004690* __ZN4FormD0Ev$w$38Z0EaWiPp736Ei30
0001:00004730* __ZN6AnchorD0Ev$w$38Z0EaWiPp736Ei30
0001:000047d0* __ZN5Font2D0Ev$w$38Z0EaWiPp736Ei30
0001:00004870* __ZN9ParagraphD0Ev$w$38Z0EaWiPp736Ei30
0001:00004910* __ZN9TableCellD0Ev$w$38Z0EaWiPp736Ei30
0001:000049b0* __ZN16TableHeadingCellD0Ev$w$38Z0EaWiPp736Ei30
0001:00004a50* __ZN8TextAreaD0Ev$w$38Z0EaWiPp736Ei30
0001:00004ac0* __ZN14DefinitionListD1Ev$w$38Z0EaWiPp736Ei30
0001:00005d60* __ZTV14DefinitionList$w$38Z0EaWiPp736Ei30
0001:00004bc0* __ZN14DefinitionListD0Ev$w$38Z0EaWiPp736Ei30
0001:00004cb0* __ZN8auto_ptrI7CaptionED1Ev$w$38Z0EaWiPp736Ei30
0001:00004d50* __ZNSt10_List_baseI8auto_ptrISt4listISt4pairISsSsESaIS3_EEESaIS6_EE8_M_clearEv$w$38Z0EaWiPp736Ei30
0001:00004da0* __ZN3MapD0Ev$w$38Z0EaWiPp736Ei30
0001:00005ea0* __ZTV3Map$w$38Z0EaWiPp736Ei30
0001:00004e00* __ZN3MapD1Ev$w$38Z0EaWiPp736Ei30
0001:00004e60* __ZNSt10_List_baseI8auto_ptrI8TableRowESaIS2_EE8_M_clearEv$w$38Z0EaWiPp736Ei30
0001:00004f30* __ZN5TableD1Ev$w$38Z0EaWiPp736Ei30
0001:00005dc0* __ZTV5Table$w$38Z0EaWiPp736Ei30
0001:00005030* __ZN5TableD0Ev$w$38Z0EaWiPp736Ei30
0001:00005130* __ZNSt10_List_baseI8auto_ptrI8ListItemESaIS2_EE8_M_clearEv$w$38Z0EaWiPp736Ei30
0001:00005180* __ZN11OrderedListD1Ev$w$38Z0EaWiPp736Ei30
0001:00005ca0* __ZTV11OrderedList$w$38Z0EaWiPp736Ei30
0001:000051f0* __ZN4MenuD1Ev$w$38Z0EaWiPp736Ei30
0001:00005d00* __ZTV4Menu$w$38Z0EaWiPp736Ei30
0001:00005260* __ZN13UnorderedListD1Ev$w$38Z0EaWiPp736Ei30
0001:00005cc0* __ZTV13UnorderedList$w$38Z0EaWiPp736Ei30
0001:000052d0* __ZN3DirD1Ev$w$38Z0EaWiPp736Ei30
0001:00005ce0* __ZTV3Dir$w$38Z0EaWiPp736Ei30
0001:00005340* __ZN13UnorderedListD0Ev$w$38Z0EaWiPp736Ei30
0001:000053b0* __ZN11OrderedListD0Ev$w$38Z0EaWiPp736Ei30
0001:00005420* __ZN4MenuD0Ev$w$38Z0EaWiPp736Ei30
0001:00005490* __ZN3DirD0Ev$w$38Z0EaWiPp736Ei30
0001:00005500* __ZNSt10_List_baseI8auto_ptrI6OptionESaIS2_EE8_M_clearEv$w$38Z0EaWiPp736Ei30
0001:00005590* __ZN6SelectD1Ev$w$38Z0EaWiPp736Ei30
0001:00005c60* __ZTV6Select$w$38Z0EaWiPp736Ei30
0001:00005600* __ZN6SelectD0Ev$w$38Z0EaWiPp736Ei30
0001:000056a4* __ZTS7Element$w$38Z0EaWiPp736Ei30
0001:000056b0* __ZTI7Element$w$38Z0EaWiPp736Ei30
0001:000056b8* __ZTS6PCData$w$38Z0EaWiPp736Ei30
0001:000056c0* __ZTI6PCData$w$38Z0EaWiPp736Ei30
0001:000056cc* __ZTS4Font$w$38Z0EaWiPp736Ei30
0001:000056d4* __ZTI4Font$w$38Z0EaWiPp736Ei30
0001:000056e0* __ZTS6Phrase$w$38Z0EaWiPp736Ei30
0001:000056e8* __ZTI6Phrase$w$38Z0EaWiPp736Ei30
0001:000056f4* __ZTS5Font2$w$38Z0EaWiPp736Ei30
0001:000056fc* __ZTI5Font2$w$38Z0EaWiPp736Ei30
0001:00005708* __ZTS6Anchor$w$38Z0EaWiPp736Ei30
0001:00005710* __ZTI6Anchor$w$38Z0EaWiPp736Ei30
0001:0000571c* __ZTS8BaseFont$w$38Z0EaWiPp736Ei30
0001:00005728* __ZTI8BaseFont$w$38Z0EaWiPp736Ei30
0001:00005734* __ZTS9LineBreak$w$38Z0EaWiPp736Ei30
0001:00005740* __ZTI9LineBreak$w$38Z0EaWiPp736Ei30
0001:0000574c* __ZTS3Map$w$38Z0EaWiPp736Ei30
0001:00005754* __ZTI3Map$w$38Z0EaWiPp736Ei30
0001:00005760* __ZTS9Paragraph$w$38Z0EaWiPp736Ei30
0001:0000576c* __ZTI9Paragraph$w$38Z0EaWiPp736Ei30
0001:00005778* __ZTS5Image$w$38Z0EaWiPp736Ei30
0001:00005780* __ZTI5Image$w$38Z0EaWiPp736Ei30
0001:0000578c* __ZTS6Applet$w$38Z0EaWiPp736Ei30
0001:00005794* __ZTI6Applet$w$38Z0EaWiPp736Ei30
0001:000057a0* __ZTS5Param$w$38Z0EaWiPp736Ei30
0001:000057a8* __ZTI5Param$w$38Z0EaWiPp736Ei30
0001:000057b4* __ZTS8Division$w$38Z0EaWiPp736Ei30
0001:000057c0* __ZTI8Division$w$38Z0EaWiPp736Ei30
0001:000057cc* __ZTS6Center$w$38Z0EaWiPp736Ei30
0001:000057d4* __ZTI6Center$w$38Z0EaWiPp736Ei30
0001:000057e0* __ZTS10BlockQuote$w$38Z0EaWiPp736Ei30
0001:000057f0* __ZTI10BlockQuote$w$38Z0EaWiPp736Ei30
0001:000057fc* __ZTS7Address$w$38Z0EaWiPp736Ei30
0001:00005808* __ZTI7Address$w$38Z0EaWiPp736Ei30
0001:00005814* __ZTS4Form$w$38Z0EaWiPp736Ei30
0001:0000581c* __ZTI4Form$w$38Z0EaWiPp736Ei30
0001:00005828* __ZTS5Input$w$38Z0EaWiPp736Ei30
0001:00005830* __ZTI5Input$w$38Z0EaWiPp736Ei30
0001:0000583c* __ZTS6Select$w$38Z0EaWiPp736Ei30
0001:00005844* __ZTI6Select$w$38Z0EaWiPp736Ei30
0001:00005850* __ZTS8TextArea$w$38Z0EaWiPp736Ei30
0001:0000585c* __ZTI8TextArea$w$38Z0EaWiPp736Ei30
0001:00005868* __ZTS12Preformatted$w$38Z0EaWiPp736Ei30
0001:00005878* __ZTI12Preformatted$w$38Z0EaWiPp736Ei30
0001:00005884* __ZTS4Body$w$38Z0EaWiPp736Ei30
0001:0000588c* __ZTI4Body$w$38Z0EaWiPp736Ei30
0001:00005894* __ZTS7Heading$w$38Z0EaWiPp736Ei30
0001:000058a0* __ZTI7Heading$w$38Z0EaWiPp736Ei30
0001:000058ac* __ZTS9TableCell$w$38Z0EaWiPp736Ei30
0001:000058b8* __ZTI9TableCell$w$38Z0EaWiPp736Ei30
0001:000058c4* __ZTS16TableHeadingCell$w$38Z0EaWiPp736Ei30
0001:000058d8* __ZTI16TableHeadingCell$w$38Z0EaWiPp736Ei30
0001:000058e4* __ZTS5Table$w$38Z0EaWiPp736Ei30
0001:000058ec* __ZTI5Table$w$38Z0EaWiPp736Ei30
0001:000058f8* __ZTS7NoBreak$w$38Z0EaWiPp736Ei30
0001:00005904* __ZTI7NoBreak$w$38Z0EaWiPp736Ei30
0001:00005910* __ZTS14HorizontalRule$w$38Z0EaWiPp736Ei30
0001:00005924* __ZTI14HorizontalRule$w$38Z0EaWiPp736Ei30
0001:00005930* __ZTI8ListItem$w$38Z0EaWiPp736Ei30
0001:00005938* __ZTS8ListItem$w$38Z0EaWiPp736Ei30
0001:00005942* __ZTS14ListNormalItem$w$38Z0EaWiPp736Ei30
0001:00005954* __ZTI14ListNormalItem$w$38Z0EaWiPp736Ei30
0001:00005960* __ZTS13ListBlockItem$w$38Z0EaWiPp736Ei30
0001:00005970* __ZTI13ListBlockItem$w$38Z0EaWiPp736Ei30
0001:0000597c* __ZTS11OrderedList$w$38Z0EaWiPp736Ei30
0001:0000598c* __ZTI11OrderedList$w$38Z0EaWiPp736Ei30
0001:00005998* __ZTS13UnorderedList$w$38Z0EaWiPp736Ei30
0001:000059a8* __ZTI13UnorderedList$w$38Z0EaWiPp736Ei30
0001:000059b4* __ZTS3Dir$w$38Z0EaWiPp736Ei30
0001:000059bc* __ZTI3Dir$w$38Z0EaWiPp736Ei30
0001:000059c8* __ZTS4Menu$w$38Z0EaWiPp736Ei30
0001:000059d0* __ZTI4Menu$w$38Z0EaWiPp736Ei30
0001:000059dc* __ZTI18DefinitionListItem$w$38Z0EaWiPp736Ei30
0001:000059e4* __ZTS18DefinitionListItem$w$38Z0EaWiPp736Ei30
0001:000059f9* __ZTS8TermName$w$38Z0EaWiPp736Ei30
0001:00005a04* __ZTI8TermName$w$38Z0EaWiPp736Ei30
0001:00005a10* __ZTS14TermDefinition$w$38Z0EaWiPp736Ei30
0001:00005a24* __ZTI14TermDefinition$w$38Z0EaWiPp736Ei30
0001:00005a30* __ZTS14DefinitionList$w$38Z0EaWiPp736Ei30
0001:00005a44* __ZTI14DefinitionList$w$38Z0EaWiPp736Ei30
0001:00005a60* __ZTV7Element$w$38Z0EaWiPp736Ei30
0001:00005ee0* __ZTV9TableCell$w$38Z0EaWiPp736Ei30
0001:00005ef8* __ZTV16TableHeadingCell$w$38Z0EaWiPp736Ei30
Module: K:\usr\local\src\dssaver\Modules\CairoRSS\html2txt\HTMLControl.o(HTMLControl.o)
0001:00006090  __ZN11HTMLControl10read_cdataEPKcPSs
0001:000061c0* __ZN11HTMLControl8get_charEv
0001:000061f0* __ZN11HTMLControl10unget_charEi
0001:00006370* __ZN11HTMLControl6yylex2EP19yy_HTMLParser_stypePi
0001:000074a0  __ZN11HTMLControl5yylexEP19yy_HTMLParser_stype
0001:00005f20* __ZNKSt5ctypeIcE8do_widenEc$w$x3vkXiWiPp7s8Nz01
0001:00005f30* __Z10cmp_nocasePKcS0_$w$x3vkXiWiPp7s8Nz01
0001:00006220* __ZNSt10_List_baseISt4pairISsSsESaIS1_EE8_M_clearEv$w$x3vkXiWiPp7s8Nz01
0001:00008030* __ZTI10HTMLParser$w$x3vkXiWiPp7s8Nz01
0001:00008038* __ZTS10HTMLParser$w$x3vkXiWiPp7s8Nz01
0001:00008045* __ZTS11HTMLControl$w$x3vkXiWiPp7s8Nz01
0001:00008054* __ZTI11HTMLControl$w$x3vkXiWiPp7s8Nz01
0001:00008060* __ZTV11HTMLControl$w$x3vkXiWiPp7s8Nz01
Module: K:\usr\local\src\dssaver\Modules\CairoRSS\html2txt\HTMLParser.o(HTMLParser.o)
0001:00008080  __ZN10HTMLParserC2Ev
0001:00008080* __ZN10HTMLParserC1Ev
0001:000080a0  __ZN10HTMLParserD2Ev
0001:000080a0* __ZN10HTMLParserD1Ev
0001:000080b0* __ZN10HTMLParserD0Ev
0001:00008a80  __ZN10HTMLParser7yyparseEv
0001:00010060  __ZN10HTMLParser7END_VARE
0001:00010064  __ZN10HTMLParser6END_ULE
0001:00010068  __ZN10HTMLParser5END_UE
0001:0001006c  __ZN10HTMLParser6END_TTE
0001:00010070  __ZN10HTMLParser6END_TRE
0001:00010074  __ZN10HTMLParser9END_TITLEE
0001:00010078  __ZN10HTMLParser6END_THE
0001:0001007c  __ZN10HTMLParser12END_TEXTAREAE
0001:00010080  __ZN10HTMLParser6END_TDE
0001:00010084  __ZN10HTMLParser9END_TABLEE
0001:00010088  __ZN10HTMLParser7END_SUPE
0001:0001008c  __ZN10HTMLParser7END_SUBE
0001:00010090  __ZN10HTMLParser9END_STYLEE
0001:00010094  __ZN10HTMLParser10END_STRONGE
0001:00010098  __ZN10HTMLParser10END_STRIKEE
0001:0001009c  __ZN10HTMLParser9END_SMALLE
0001:000100a0  __ZN10HTMLParser10END_SELECTE
0001:000100a4  __ZN10HTMLParser10END_SCRIPTE
0001:000100a8  __ZN10HTMLParser8END_SAMPE
0001:000100ac  __ZN10HTMLParser7END_PREE
0001:000100b0  __ZN10HTMLParser5END_PE
0001:000100b4  __ZN10HTMLParser10END_OPTIONE
0001:000100b8  __ZN10HTMLParser6END_OLE
0001:000100bc  __ZN10HTMLParser8END_NOBRE
0001:000100c0  __ZN10HTMLParser8END_MENUE
0001:000100c4  __ZN10HTMLParser7END_MAPE
0001:000100c8  __ZN10HTMLParser6END_LIE
0001:000100cc  __ZN10HTMLParser7END_KBDE
0001:000100d0  __ZN10HTMLParser5END_IE
0001:000100d4  __ZN10HTMLParser8END_HTMLE
0001:000100d8  __ZN10HTMLParser8END_HEADE
0001:000100dc  __ZN10HTMLParser6END_H6E
0001:000100e0  __ZN10HTMLParser6END_H5E
0001:000100e4  __ZN10HTMLParser6END_H4E
0001:000100e8  __ZN10HTMLParser6END_H3E
0001:000100ec  __ZN10HTMLParser6END_H2E
0001:000100f0  __ZN10HTMLParser6END_H1E
0001:000100f4  __ZN10HTMLParser8END_FORME
0001:000100f8  __ZN10HTMLParser8END_FONTE
0001:000100fc  __ZN10HTMLParser6END_EME
0001:00010100  __ZN10HTMLParser6END_DTE
0001:00010104  __ZN10HTMLParser6END_DLE
0001:00010108  __ZN10HTMLParser7END_DIVE
0001:0001010c  __ZN10HTMLParser7END_DIRE
0001:00010110  __ZN10HTMLParser7END_DFNE
0001:00010114  __ZN10HTMLParser6END_DDE
0001:00010118  __ZN10HTMLParser8END_CODEE
0001:0001011c  __ZN10HTMLParser8END_CITEE
0001:00010120  __ZN10HTMLParser10END_CENTERE
0001:00010124  __ZN10HTMLParser11END_CAPTIONE
0001:00010128  __ZN10HTMLParser8END_BODYE
0001:0001012c  __ZN10HTMLParser14END_BLOCKQUOTEE
0001:00010130  __ZN10HTMLParser7END_BIGE
0001:00010134  __ZN10HTMLParser5END_BE
0001:00010138  __ZN10HTMLParser10END_APPLETE
0001:0001013c  __ZN10HTMLParser11END_ADDRESSE
0001:00010140  __ZN10HTMLParser5END_AE
0001:00010144  __ZN10HTMLParser3VARE
0001:00010148  __ZN10HTMLParser2ULE
0001:0001014c  __ZN10HTMLParser1UE
0001:00010150  __ZN10HTMLParser2TTE
0001:00010154  __ZN10HTMLParser2TRE
0001:00010158  __ZN10HTMLParser5TITLEE
0001:0001015c  __ZN10HTMLParser2THE
0001:00010160  __ZN10HTMLParser8TEXTAREAE
0001:00010164  __ZN10HTMLParser2TDE
0001:00010168  __ZN10HTMLParser5TABLEE
0001:0001016c  __ZN10HTMLParser3SUPE
0001:00010170  __ZN10HTMLParser3SUBE
0001:00010174  __ZN10HTMLParser5STYLEE
0001:00010178  __ZN10HTMLParser6STRONGE
0001:0001017c  __ZN10HTMLParser6STRIKEE
0001:00010180  __ZN10HTMLParser5SMALLE
0001:00010184  __ZN10HTMLParser6SELECTE
0001:00010188  __ZN10HTMLParser6SCRIPTE
0001:0001018c  __ZN10HTMLParser4SAMPE
0001:00010190  __ZN10HTMLParser3PREE
0001:00010194  __ZN10HTMLParser5PARAME
0001:00010198  __ZN10HTMLParser1PE
0001:0001019c  __ZN10HTMLParser6OPTIONE
0001:000101a0  __ZN10HTMLParser2OLE
0001:000101a4  __ZN10HTMLParser4NOBRE
0001:000101a8  __ZN10HTMLParser4METAE
0001:000101ac  __ZN10HTMLParser4MENUE
0001:000101b0  __ZN10HTMLParser3MAPE
0001:000101b4  __ZN10HTMLParser4LINKE
0001:000101b8  __ZN10HTMLParser2LIE
0001:000101bc  __ZN10HTMLParser3KBDE
0001:000101c0  __ZN10HTMLParser7ISINDEXE
0001:000101c4  __ZN10HTMLParser5INPUTE
0001:000101c8  __ZN10HTMLParser3IMGE
0001:000101cc  __ZN10HTMLParser1IE
0001:000101d0  __ZN10HTMLParser4HTMLE
0001:000101d4  __ZN10HTMLParser2HRE
0001:000101d8  __ZN10HTMLParser4HEADE
0001:000101dc  __ZN10HTMLParser2H6E
0001:000101e0  __ZN10HTMLParser2H5E
0001:000101e4  __ZN10HTMLParser2H4E
0001:000101e8  __ZN10HTMLParser2H3E
0001:000101ec  __ZN10HTMLParser2H2E
0001:000101f0  __ZN10HTMLParser2H1E
0001:000101f4  __ZN10HTMLParser4FORME
0001:000101f8  __ZN10HTMLParser4FONTE
0001:000101fc  __ZN10HTMLParser2EME
0001:00010200  __ZN10HTMLParser2DTE
0001:00010204  __ZN10HTMLParser2DLE
0001:00010208  __ZN10HTMLParser3DIVE
0001:0001020c  __ZN10HTMLParser3DIRE
0001:00010210  __ZN10HTMLParser3DFNE
0001:00010214  __ZN10HTMLParser2DDE
0001:00010218  __ZN10HTMLParser4CODEE
0001:0001021c  __ZN10HTMLParser4CITEE
0001:00010220  __ZN10HTMLParser6CENTERE
0001:00010224  __ZN10HTMLParser7CAPTIONE
0001:00010228  __ZN10HTMLParser2BRE
0001:0001022c  __ZN10HTMLParser4BODYE
0001:00010230  __ZN10HTMLParser10BLOCKQUOTEE
0001:00010234  __ZN10HTMLParser3BIGE
0001:00010238  __ZN10HTMLParser8BASEFONTE
0001:0001023c  __ZN10HTMLParser4BASEE
0001:00010240  __ZN10HTMLParser1BE
0001:00010244  __ZN10HTMLParser4AREAE
0001:00010248  __ZN10HTMLParser6APPLETE
0001:0001024c  __ZN10HTMLParser7ADDRESSE
0001:00010250  __ZN10HTMLParser1AE
0001:00010254  __ZN10HTMLParser10SCAN_ERRORE
0001:00010258  __ZN10HTMLParser6PCDATAE
0001:0001025c  __ZN10HTMLParser7DOCTYPEE
0001:00010040* __ZTV10HTMLParser$w$rMZzVwWiPp7K10Vs3
0001:000080c0* __ZNSt10_List_baseISt4pairISsSsESaIS1_EE8_M_clearEv$w$rMZzVwWiPp7K10Vs3
0001:000081a0* __ZN8auto_ptrISt4listISt4pairISsSsESaIS2_EEED1Ev$w$rMZzVwWiPp7K10Vs3
0001:000081d0* __ZN8auto_ptrI5StyleED1Ev$w$rMZzVwWiPp7K10Vs3
0001:00008250* __ZN8auto_ptrI6ScriptED1Ev$w$rMZzVwWiPp7K10Vs3
0001:000082d0* __ZN8auto_ptrI6OptionED1Ev$w$rMZzVwWiPp7K10Vs3
0001:00008340* __ZN4HeadD1Ev$w$rMZzVwWiPp7K10Vs3
0001:00008510* __ZNSt10_List_baseI8auto_ptrI7ElementESaIS2_EE8_M_clearEv$w$rMZzVwWiPp7K10Vs3
0001:00008560* __ZN8DocumentD1Ev$w$rMZzVwWiPp7K10Vs3
0001:000087b0* __ZNSt10_List_baseI8auto_ptrI8ListItemESaIS2_EE8_M_clearEv$w$rMZzVwWiPp7K10Vs3
0001:00008800* __ZNSt10_List_baseI8auto_ptrI9TableCellESaIS2_EE8_M_clearEv$w$rMZzVwWiPp7K10Vs3
0001:00008850* __ZNSt10_List_baseI8auto_ptrI6OptionESaIS2_EE8_M_clearEv$w$rMZzVwWiPp7K10Vs3
0001:00010024* __ZTS10HTMLParser$w$rMZzVwWiPp7K10Vs3
0001:00010034* __ZTI10HTMLParser$w$rMZzVwWiPp7K10Vs3
Module: K:\usr\local\src\dssaver\Modules\CairoRSS\html2txt\Area.o(Area.o)
0001:000102c0* __ZN4LineC2Ej
0001:000102c0* __ZN4LineC1Ej
0001:00010310* __ZN4LineC2EPKc
0001:00010310  __ZN4LineC1EPKc
0001:00010360* __ZN4LineC2ERKSs
0001:00010360  __ZN4LineC1ERKSs
0001:000103b0* __ZN4LineD2Ev
0001:000103b0  __ZN4LineD1Ev
0001:000103d0* __ZN4Line6resizeEj
0001:000103f0  __ZN4Line6insertERKS_j
0001:00010450* __ZN4Line6insertEPKcj
0001:000104b0* __ZN4Line6insertERKSsj
0001:000104c0  __ZN4Line6appendEc
0001:00010500  __ZN4Line6appendERKS_
0001:00010560  __ZN4Line6appendEPKc
0001:000105c0  __ZN4Line13add_attributeEc
0001:000105f0* __ZN4AreaC2Ev
0001:000105f0  __ZN4AreaC1Ev
0001:00010620* __ZN4AreaC2Ejjcc
0001:00010620  __ZN4AreaC1Ejjcc
0001:000106c0* __ZN4AreaC2EPKc
0001:000106c0  __ZN4AreaC1EPKc
0001:00010730* __ZN4AreaC2ERKSs
0001:00010730  __ZN4AreaC1ERKSs
0001:000107a0* __ZN4AreaC2ERK4Line
0001:000107a0* __ZN4AreaC1ERK4Line
0001:00010820* __ZN4AreaD2Ev
0001:00010820  __ZN4AreaD1Ev
0001:00010870  __ZN4Area6resizeEjj
0001:00010a40  __ZN4ArearSEj
0001:00010ae0  __ZN4Area7enlargeEjj
0001:00010b30  __ZN4Area6insertERKS_jj
0001:00010bd0  __ZN4Area6insertERKS_jjjjii
0001:00010c90* __ZN4Area6insertERK4Celljj
0001:00010ce0* __ZN4Area4fillERK4Celljjjj
0001:00010d80  __ZN4Area6insertEPK4Celljjj
0001:00010df0* __ZN4Area6insertEcjj
0001:00010e40  __ZN4Area6insertERKSsjj
0001:00010eb0  __ZN4Area7prependEi
0001:00010f50  __ZN4AreapLERKS_
0001:00010f80  __ZN4Area4fillEcjjjj
0001:00011000  __ZN4Area13add_attributeEc
0001:000110a0  __ZN4Area13add_attributeEcjjjj
0001:00011130* __Z9backspaceRSo
0001:00011160  __ZlsRSoRK4Area
0002:00003440  __ZN4Area14use_backspacesE
0001:00010260* __ZNKSt5ctypeIcE8do_widenEc$w$R7E4qDWiPp7J7zu43
Module: K:\usr\local\src\dssaver\Modules\CairoRSS\html2txt\format.o(format.o)
0001:00011780  __ZNK6PCData11line_formatEv
0001:000117d0  __ZNK9LineBreak11line_formatEv
0001:00011820* __ZN10Formatting14loadPropertiesERSi
0001:00011840* __ZN10Formatting9getStringEPKcS1_
0001:00011870* __ZN10Formatting9getStringEPKc
0001:00011890  __ZN10Formatting6getIntEPKci
0001:00011910* __ZN11BlockFormatC2EPKcjjjj
0001:00011910* __ZN11BlockFormatC1EPKcjjjj
0001:000119e0  __ZNK14HorizontalRule6formatEji
0001:00011bc0* __ZNK11BlockFormat15effective_widthEj
0001:00011c10* __ZNK10ListFormat10get_indentEi
0001:00011c90* __ZNK10ListFormat8get_typeEPKSt4listISt4pairISsSsESaIS2_EEii
0001:00012100  __ZNK13ListBlockItem6formatEjijPi
0001:00012240  __ZNK8TextArea6formatEji
0001:00012550  __ZNK4Body6formatEji
0001:000126b0* __ZNK8Document6formatEji
0001:00012820  __ZNK16TableHeadingCell6formatEji
0001:00012890  __ZNK14DefinitionList6formatEji
0001:00012b00  __ZNK8TermName6formatEji
0001:00012c60  __ZNK14TermDefinition6formatEji
0001:00012de0  __ZNK9Paragraph6formatEji
0001:00012f70  __ZNK8Division6formatEji
0001:00012ff0  __ZNK6Center6formatEji
0001:00013020  __ZNK10BlockQuote6formatEji
0001:00013190  __ZNK7Address6formatEji
0001:000132f0  __ZNK4Form6formatEji
0001:00013320  __ZNK5Font26formatEji
0001:00013340* __ZNK4Body6formatEjjiRSo
0001:000137c0  __ZNK8Document6formatEjjiRSo
0001:00013ad0  __ZNK5Font211line_formatEv
0001:00013ae0  __ZNK7NoBreak11line_formatEv
0001:00013b30  __ZNK12Preformatted6formatEji
0001:00013db0  __ZNK7Caption6formatEji
0001:00013e50  __ZNK6Select11line_formatEv
0001:00014170  __ZNK6Applet6formatEji
0001:00014540  __ZNK6Applet11line_formatEv
0001:00014990  __ZNK5Image11line_formatEv
0001:00015030  __ZNK5Input11line_formatEv
0001:00015dd0* __ZN10Formatting12getIntVectorEPKcS1_
0001:000162e0* __ZN10Formatting11setPropertyEPKcS1_
0001:00016990* __ZN10Formatting15getStringVectorEPKcS1_
0001:00016b30* __ZN10Formatting13getAttributesEPKcc
0001:00016ee0  __ZNK7Heading6formatEji
0001:00017ab0  __ZNK4Font11line_formatEv
0001:00017b10  __ZNK4Font6formatEji
0001:00018020  __ZNK6Phrase11line_formatEv
0001:00018080  __ZNK6Phrase6formatEji
0001:00018280  __ZNK6Anchor11line_formatEv
0001:000183a0  __ZNK6Anchor6formatEji
0001:000184f0* __ZN10ListFormatC2EPKcjjjS1_S1_
0001:000184f0* __ZN10ListFormatC1EPKcjjjS1_S1_
0001:000186f0  __ZNK4Menu6formatEji
0001:00018990  __ZNK3Dir6formatEji
0001:00018c10  __ZNK13UnorderedList6formatEji
0001:00018e90  __ZNK11OrderedList6formatEji
0001:000192c0  __ZNK14ListNormalItem6formatEjijPi
0001:00011400* __ZNKSt5ctypeIcE8do_widenEc$w$f8EXcXWiPp7vMBti0
0001:00011740* __Z10cmp_nocaseRKSsPKc$w$f8EXcXWiPp7vMBti0
0001:00011df0* __ZN8auto_ptrI4AreaED1Ev$w$f8EXcXWiPp7vMBti0
0001:00012170* __ZN8auto_ptrISt6vectorISsSaISsEEED1Ev$w$f8EXcXWiPp7vMBti0
0001:00012210* __ZN8auto_ptrI4LineED1Ev$w$f8EXcXWiPp7vMBti0
0001:000140a0* __ZStplIcSt11char_traitsIcESaIcEESbIT_T0_T1_EPKS3_RKS6_$w$f8EXcXWiPp7vMBti0
0001:000148b0* __ZStplIcSt11char_traitsIcESaIcEESbIT_T0_T1_ES3_RKS6_$w$f8EXcXWiPp7vMBti0
0001:00014f40* __ZStplIcSt11char_traitsIcESaIcEESbIT_T0_T1_ERKS6_S3_$w$f8EXcXWiPp7vMBti0
0001:00015b60* __ZNSt8_Rb_treeISsSt4pairIKSsSsESt10_Select1stIS2_ESt4lessISsESaIS2_EE8_M_eraseEPSt13_Rb_tree_nodeIS2_E$w$f8EXcXWiPp7vMBti0
0001:00015c60* __ZNSt6vectorIiSaIiEE13_M_insert_auxEN9__gnu_cxx17__normal_iteratorIPiS1_EERKi$w$f8EXcXWiPp7vMBti0
0001:00015ef0* __ZNSt8_Rb_treeISsSt4pairIKSsSsESt10_Select1stIS2_ESt4lessISsESaIS2_EE10_M_insert_EPSt18_Rb_tree_node_baseSA_RKS2_$w$f8EXcXWiPp7vMBti0
0001:00016010* __ZNSt8_Rb_treeISsSt4pairIKSsSsESt10_Select1stIS2_ESt4lessISsESaIS2_EE24_M_get_insert_unique_posERS1_$w$f8EXcXWiPp7vMBti0
0001:00016110* __ZNSt8_Rb_treeISsSt4pairIKSsSsESt10_Select1stIS2_ESt4lessISsESaIS2_EE29_M_get_insert_hint_unique_posESt23_Rb_tree_const_iteratorIS2_ERS1_$w$f8EXcXWiPp7vMBti0
0001:00016600* __ZNSt12_Destroy_auxILb0EE9__destroyIPSsEEvT_S3_$w$f8EXcXWiPp7vMBti0
0001:00016670* __ZNSt6vectorISsSaISsEE13_M_insert_auxEN9__gnu_cxx17__normal_iteratorIPSsS1_EERKSs$w$f8EXcXWiPp7vMBti0
0001:00019150* __ZNSs12_S_constructIPcEES0_T_S1_RKSaIcESt20forward_iterator_tag$w$f8EXcXWiPp7vMBti0
Module: K:\usr\local\src\dssaver\Modules\CairoRSS\html2txt\sgml.o(sgml.o)
0001:0001a060  __Z21replace_sgml_entitiesPSs
Module: K:\usr\local\src\dssaver\Modules\CairoRSS\html2txt\table.o(table.o)
0001:0001b770  __ZNK5Table6formatEji
0001:0001b660* __ZN8auto_ptrI4AreaED1Ev$w$XQ1WaeXiPp7oFzxM3
0001:0001b690* __ZNSt10_List_baseI8auto_ptrI11LogicalCellESaIS2_EE8_M_clearEv$w$XQ1WaeXiPp7oFzxM3
Module: K:\usr\local\src\dssaver\Modules\CairoRSS\html2txt\Properties.o(Properties.o)
0001:0001cbe0* __ZN10Properties12readPropertyERSiPSsS1_
0001:0001d040  __ZNK10Properties11getPropertyEPKcS1_
0001:0001d0e0  __ZNK10Properties11getPropertyEPKc
0001:0001d570  __ZN10Properties4loadERSi
0001:0001c7f0* __ZNKSt5ctypeIcE8do_widenEc$w$1t8wQkXiPp7f6dPv1
0001:0001cf80* __ZNKSt8_Rb_treeISsSt4pairIKSsSsESt10_Select1stIS2_ESt4lessISsESaIS2_EE4findERS1_$w$1t8wQkXiPp7f6dPv1
0001:0001d180* __ZNSt8_Rb_treeISsSt4pairIKSsSsESt10_Select1stIS2_ESt4lessISsESaIS2_EE10_M_insert_EPSt18_Rb_tree_node_baseSA_RKS2_$w$1t8wQkXiPp7f6dPv1
0001:0001d2a0* __ZNSt8_Rb_treeISsSt4pairIKSsSsESt10_Select1stIS2_ESt4lessISsESaIS2_EE24_M_get_insert_unique_posERS1_$w$1t8wQkXiPp7f6dPv1
0001:0001d3a0* __ZNSt8_Rb_treeISsSt4pairIKSsSsESt10_Select1stIS2_ESt4lessISsESaIS2_EE29_M_get_insert_hint_unique_posESt23_Rb_tree_const_iteratorIS2_ERS1_$w$1t8wQkXiPp7f6dPv1
Module: K:\usr\local\src\dssaver\Modules\CairoRSS\html2txt\cmp_nocase.o(cmp_nocase.o)
0001:0001d920  __Z11_cmp_nocasePKcjS0_j
Module: K:\usr\lib\libc_dll.lib(dllinit.obj)
0001:0001d9c0  _DLL_InitTerm
Module: K:\usr\lib\libend.lib(src/libend/386/endlink386.asm)
0002:000061e0  _end
0002:00005a80  _edata
Module: K:\usr\lib\libend.lib(src/libend/386/end.asm)
0001:0001db00* _etext
0001:0001db00* __etext
0000:00000000* WEAK$ZERO
0002:000061e0  __end
0002:00005a80  __edata
Module: K:\usr\lib\gcc\i386-pc-os2-emx\4.9.2\libgcc_so_d.lib(emx-eh.obj)
0001:0001da00  ___ehInit
0001:0001da40* ___ehTerm
Module: K:\usr\lib\gcc\i386-pc-os2-emx\4.9.2\libgcc_so_d.lib(emx-ctordtor.obj)
0001:0001da80  ___ctordtorInit
0001:0001dac0  ___ctordtorTerm


                        +----------------------+
                        |   Imported Symbols   |
                        +----------------------+

Symbol                              Module
======                              ======

___libc_ForkRegisterModule          libc066
___init_dll                         libc066
___libc_Back_termDll                libc066
___libc_ForkDeregisterModule        libc066
__atfork_callback                   libc066
__ZdlPv                             stdcpp6
__ZNSt8ios_base4InitC1Ev            stdcpp6
__ZNSt8ios_base4InitD1Ev            stdcpp6
__ZNSt9strstreamC1EPciSt13_Ios_Openmode stdcpp6
__ZNSt9strstreamC1Ev                stdcpp6
__ZSt16__ostream_insertIcSt11char_traitsIcEERSt13basic_ostreamIT_T0_ES6_PKS3_i stdcpp6
__ZNKSt9strstream6pcountEv          stdcpp6
__ZNSt9strstream3strEv              stdcpp6
__ZNSt9strstreamD1Ev                stdcpp6
__Unwind_Resume                     gcc1
__ZTVN10__cxxabiv117__class_type_infoE stdcpp6
__ZTVN10__cxxabiv120__si_class_type_infoE stdcpp6
___gxx_personality_v0               stdcpp6
__ZNSs4_Rep20_S_empty_rep_storageE  stdcpp6
__ZN9__gnu_cxx18__exchange_and_addEPVii stdcpp6
__ZNSs4_Rep10_M_destroyERKSaIcE     stdcpp6
__ZNSo3putEc                        stdcpp6
__ZNSo5flushEv                      stdcpp6
__ZNKSt5ctypeIcE13_M_widen_initEv   stdcpp6
__ZSt16__throw_bad_castv            stdcpp6
__ZNSolsEi                          stdcpp6
__ZNSsC1ERKSs                       stdcpp6
__ZNSsC1EPKcRKSaIcE                 stdcpp6
___cxa_pure_virtual                 stdcpp6
__ZNSi3getEv                        stdcpp6
__ZNSs7reserveEj                    stdcpp6
_toupper                            libc066
__ZNSs9_M_mutateEjjj                stdcpp6
__ZSt24__throw_out_of_range_fmtPKcz stdcpp6
__Znwj                              stdcpp6
_isalpha                            libc066
_isalnum                            libc066
_isspace                            libc066
__ZNSs14_M_replace_auxEjjjc         stdcpp6
__ZNSt8__detail15_List_node_base7_M_hookEPS0_ stdcpp6
__ZSt4cerr                          stdcpp6
___cxa_begin_catch                  stdcpp6
___cxa_rethrow                      stdcpp6
__ZNSsC1EjcRKSaIcE                  stdcpp6
__ZNSs9push_backEc                  stdcpp6
___cxa_end_catch                    stdcpp6
__ZNSs12_M_leak_hardEv              stdcpp6
__ZNSs7replaceEjjPKcj               stdcpp6
___chkstk_ms                        gcc1
___stderrp                          libc066
__ZNSt8__detail15_List_node_base11_M_transferEPS0_S1_ stdcpp6
__ZNSs6assignERKSs                  stdcpp6
__ZSt9terminatev                    stdcpp6
___cxa_guard_acquire                stdcpp6
___cxa_guard_release                stdcpp6
___cxa_guard_abort                  stdcpp6
__ZNKSs7compareEPKc                 stdcpp6
__ZNSs6appendEPKcj                  stdcpp6
__ZNSs6appendERKSs                  stdcpp6
__ZNSs6appendEjc                    stdcpp6
__ZNSs6assignEPKc                   stdcpp6
__ZSt29_Rb_tree_insert_and_rebalancebPSt18_Rb_tree_node_baseS0_RS_ stdcpp6
__ZSt18_Rb_tree_decrementPSt18_Rb_tree_node_base stdcpp6
__ZSt18_Rb_tree_incrementPSt18_Rb_tree_node_base stdcpp6
__ZNSs6assignEPKcj                  stdcpp6
__ZNSsC1EPKcjRKSaIcE                stdcpp6
__ZSt19__throw_logic_errorPKc       stdcpp6
__ZNSs4_Rep9_S_createEjjRKSaIcE     stdcpp6
__ZNSt8ios_baseC2Ev                 stdcpp6
__ZTVSt9basic_iosIcSt11char_traitsIcEE stdcpp6
__ZTTSt19basic_ostringstreamIcSt11char_traitsIcESaIcEE stdcpp6
__ZNSt9basic_iosIcSt11char_traitsIcEE4initEPSt15basic_streambufIcS1_E stdcpp6
__ZTVSt19basic_ostringstreamIcSt11char_traitsIcESaIcEE stdcpp6
__ZTVSt15basic_streambufIcSt11char_traitsIcEE stdcpp6
__ZNSt6localeC1Ev                   stdcpp6
__ZTVSt15basic_stringbufIcSt11char_traitsIcESaIcEE stdcpp6
__ZNSt6localeD1Ev                   stdcpp6
__ZNSt8ios_baseD2Ev                 stdcpp6
__ZNSt19basic_ostringstreamIcSt11char_traitsIcESaIcEED1Ev stdcpp6
__Znaj                              stdcpp6
__ZdaPv                             stdcpp6
__ZSt7getlineIcSt11char_traitsIcESaIcEERSt13basic_istreamIT_T0_ES7_RSbIS4_S5_T1_ES4_ stdcpp6
__ZNSs6assignERKSsjj                stdcpp6
__CRT_term                          libc066
__CRT_init                          libc066
__std_free                          libc066
__std_malloc                        libc066
__std_strncpy                       libc066
___register_frame_table             gcc1
___deregister_frame                 gcc1
__std_abort                         libc066
__std_strlen                        libc066
__std_atoi                          libc066
__std_bsearch                       libc066
__std_fprintf                       libc066
__std_fwrite                        libc066
__std_fputc                         libc066
__std_realloc                       libc066
__std_memmove                       libc066
__std_sprintf                       libc066
__std_memcmp                        libc066
__std_atexit                        libc066
__std_strcmp                        libc066
___ctordtorInit1                    libc066
___ctordtorTerm1                    libc066


                        +--------------------+
                        |   Libraries Used   |
                        +--------------------+

K:\usr\lib\stdc++.lib
K:\usr\lib\gcc\i386-pc-os2-emx\4.9.2\libgcc_so_d.lib
K:\usr\lib\libc_alias.lib
K:\usr\lib\libc_dll.lib
K:\usr\lib\libend.lib


                        +-----------------------+
                        |   Linker Statistics   |
                        +-----------------------+

Stack size:  0000 (0.)
Memory size:  00023ce0 (146656.)
Link time: 00:00.16
